GAS LISTING /var/folders/_0/fbrtbm_x4pbf1b72ynjm3v580000gn/T//ccIVOSHN.s 			page 1


   1              		.file	"cs1237_gd32vf103_port.c"
   2              		.option nopic
   3              		.attribute arch, "rv32i2p0_m2p0_a2p0_c2p0"
   4              		.attribute unaligned_access, 0
   5              		.attribute stack_align, 16
   6              		.text
   7              	.Ltext0:
   8              		.cfi_sections	.debug_frame
   9              		.section	.text.cs1237_port_set_clock_pin,"ax",@progbits
  10              		.align	1
  11              		.globl	cs1237_port_set_clock_pin
  13              	cs1237_port_set_clock_pin:
  14              	.LFB2:
  15              		.file 1 "lib/cs1237/src/cs1237_gd32vf103_port.c"
   1:lib/cs1237/src/cs1237_gd32vf103_port.c **** #include "cs1237_port.h"
   2:lib/cs1237/src/cs1237_gd32vf103_port.c **** #include "gd32vf103.h"
   3:lib/cs1237/src/cs1237_gd32vf103_port.c **** 
   4:lib/cs1237/src/cs1237_gd32vf103_port.c **** #define CS1237_CLK_RCU RCU_GPIOB
   5:lib/cs1237/src/cs1237_gd32vf103_port.c **** #define CS1237_DRDY_RCU RCU_GPIOB
   6:lib/cs1237/src/cs1237_gd32vf103_port.c **** #define CS1237_CLK_PIN GPIO_PIN_6
   7:lib/cs1237/src/cs1237_gd32vf103_port.c **** #define CS1237_CLK_PORT GPIOB
   8:lib/cs1237/src/cs1237_gd32vf103_port.c **** #define CS1237_DRDY_PIN GPIO_PIN_7
   9:lib/cs1237/src/cs1237_gd32vf103_port.c **** #define CS1237_DRDY_PORT GPIOB
  10:lib/cs1237/src/cs1237_gd32vf103_port.c **** 
  11:lib/cs1237/src/cs1237_gd32vf103_port.c **** void cs1237_port_set_clock_pin(uint8_t value){
  16              		.loc 1 11 46
  17              		.cfi_startproc
  18              	.LVL0:
  12:lib/cs1237/src/cs1237_gd32vf103_port.c **** 	gpio_bit_write(CS1237_CLK_PORT, CS1237_CLK_PIN, value);
  19              		.loc 1 12 2
  20 0000 2A86     		mv	a2,a0
  21 0002 37150140 		li	a0,1073811456
  22              	.LVL1:
  23 0006 93050004 		li	a1,64
  24 000a 130505C0 		addi	a0,a0,-1024
  25 000e 17030000 		tail	gpio_bit_write
  25      67000300 
  26              	.LVL2:
  27              		.cfi_endproc
  28              	.LFE2:
  30              		.section	.text.cs1237_set_drdy_pin,"ax",@progbits
  31              		.align	1
  32              		.globl	cs1237_set_drdy_pin
  34              	cs1237_set_drdy_pin:
  35              	.LFB3:
  13:lib/cs1237/src/cs1237_gd32vf103_port.c **** }
  14:lib/cs1237/src/cs1237_gd32vf103_port.c **** 
  15:lib/cs1237/src/cs1237_gd32vf103_port.c **** void cs1237_set_drdy_pin(uint8_t value){
  36              		.loc 1 15 40
  37              		.cfi_startproc
  38              	.LVL3:
  16:lib/cs1237/src/cs1237_gd32vf103_port.c **** 	gpio_bit_write(CS1237_DRDY_PORT, CS1237_DRDY_PIN, value);
  39              		.loc 1 16 2
  40 0000 2A86     		mv	a2,a0
  41 0002 37150140 		li	a0,1073811456
  42              	.LVL4:
  43 0006 93050008 		li	a1,128
GAS LISTING /var/folders/_0/fbrtbm_x4pbf1b72ynjm3v580000gn/T//ccIVOSHN.s 			page 2


  44 000a 130505C0 		addi	a0,a0,-1024
  45 000e 17030000 		tail	gpio_bit_write
  45      67000300 
  46              	.LVL5:
  47              		.cfi_endproc
  48              	.LFE3:
  50              		.section	.text.cs1237_port_wait_min_455ns,"ax",@progbits
  51              		.align	1
  52              		.globl	cs1237_port_wait_min_455ns
  54              	cs1237_port_wait_min_455ns:
  55              	.LFB4:
  17:lib/cs1237/src/cs1237_gd32vf103_port.c **** }
  18:lib/cs1237/src/cs1237_gd32vf103_port.c **** 
  19:lib/cs1237/src/cs1237_gd32vf103_port.c **** void cs1237_port_wait_min_455ns(){
  56              		.loc 1 19 34
  57              		.cfi_startproc
  20:lib/cs1237/src/cs1237_gd32vf103_port.c **** 	uint64_t start_mtime, delta_mtime;
  58              		.loc 1 20 2
  21:lib/cs1237/src/cs1237_gd32vf103_port.c **** 
  22:lib/cs1237/src/cs1237_gd32vf103_port.c **** 	// Don't start measuruing until we see an mtime tick
  23:lib/cs1237/src/cs1237_gd32vf103_port.c **** 	uint64_t tmp = get_timer_value();
  59              		.loc 1 23 2
  19:lib/cs1237/src/cs1237_gd32vf103_port.c **** 	uint64_t start_mtime, delta_mtime;
  60              		.loc 1 19 34 is_stmt 0
  61 0000 0111     		addi	sp,sp,-32
  62              	.LCFI0:
  63              		.cfi_def_cfa_offset 32
  64 0002 22CC     		sw	s0,24(sp)
  65 0004 4EC6     		sw	s3,12(sp)
  66 0006 06CE     		sw	ra,28(sp)
  67 0008 26CA     		sw	s1,20(sp)
  68 000a 4AC8     		sw	s2,16(sp)
  69              		.cfi_offset 8, -8
  70              		.cfi_offset 19, -20
  71              		.cfi_offset 1, -4
  72              		.cfi_offset 9, -12
  73              		.cfi_offset 18, -16
  74              		.loc 1 23 17
  75 000c 97000000 		call	get_timer_value
  75      E7800000 
  76              	.LVL6:
  77 0014 AA89     		mv	s3,a0
  78 0016 2E84     		mv	s0,a1
  79              	.LVL7:
  80              	.L4:
  24:lib/cs1237/src/cs1237_gd32vf103_port.c **** 	do {
  81              		.loc 1 24 2 is_stmt 1 discriminator 1
  25:lib/cs1237/src/cs1237_gd32vf103_port.c **** 	start_mtime = get_timer_value();
  82              		.loc 1 25 2 discriminator 1
  83              		.loc 1 25 16 is_stmt 0 discriminator 1
  84 0018 97000000 		call	get_timer_value
  84      E7800000 
  85              	.LVL8:
  86 0020 AA84     		mv	s1,a0
  87 0022 2E89     		mv	s2,a1
  88              	.LVL9:
  26:lib/cs1237/src/cs1237_gd32vf103_port.c **** 	} while (start_mtime == tmp);
GAS LISTING /var/folders/_0/fbrtbm_x4pbf1b72ynjm3v580000gn/T//ccIVOSHN.s 			page 3


  89              		.loc 1 26 2 discriminator 1
  90 0024 6394A900 		bne	s3,a0,.L5
  91 0028 E308B4FE 		beq	s0,a1,.L4
  92              	.L5:
  27:lib/cs1237/src/cs1237_gd32vf103_port.c **** 
  28:lib/cs1237/src/cs1237_gd32vf103_port.c **** 	do {
  29:lib/cs1237/src/cs1237_gd32vf103_port.c **** 	delta_mtime = get_timer_value() - start_mtime;
  30:lib/cs1237/src/cs1237_gd32vf103_port.c **** 	}while(delta_mtime <(SystemCoreClock/(4*2*1000000)));
  93              		.loc 1 30 38 discriminator 1
  94 002c 37147A00 		li	s0,7999488
  95              	.LVL10:
  96 0030 B7090000 		lui	s3,%hi(SystemCoreClock)
  97 0034 13040420 		addi	s0,s0,512
  98              	.LVL11:
  99              	.L6:
  28:lib/cs1237/src/cs1237_gd32vf103_port.c **** 	delta_mtime = get_timer_value() - start_mtime;
 100              		.loc 1 28 2 is_stmt 1 discriminator 1
  29:lib/cs1237/src/cs1237_gd32vf103_port.c **** 	}while(delta_mtime <(SystemCoreClock/(4*2*1000000)));
 101              		.loc 1 29 2 discriminator 1
  29:lib/cs1237/src/cs1237_gd32vf103_port.c **** 	}while(delta_mtime <(SystemCoreClock/(4*2*1000000)));
 102              		.loc 1 29 16 is_stmt 0 discriminator 1
 103 0038 97000000 		call	get_timer_value
 103      E7800000 
 104              	.LVL12:
 105              		.loc 1 30 38 discriminator 1
 106 0040 83A70900 		lw	a5,%lo(SystemCoreClock)(s3)
  29:lib/cs1237/src/cs1237_gd32vf103_port.c **** 	}while(delta_mtime <(SystemCoreClock/(4*2*1000000)));
 107              		.loc 1 29 14 discriminator 1
 108 0044 33079540 		sub	a4,a0,s1
 109 0048 3335E500 		sgtu	a0,a4,a0
 110              	.LVL13:
 111 004c B3852541 		sub	a1,a1,s2
 112              		.loc 1 30 38 discriminator 1
 113 0050 B3D78702 		divu	a5,a5,s0
 114              		.loc 1 30 2 discriminator 1
 115 0054 6394A500 		bne	a1,a0,.L3
 116 0058 E360F7FE 		bgtu	a5,a4,.L6
 117              	.L3:
  31:lib/cs1237/src/cs1237_gd32vf103_port.c **** }
 118              		.loc 1 31 1
 119 005c F240     		lw	ra,28(sp)
 120              		.cfi_restore 1
 121 005e 6244     		lw	s0,24(sp)
 122              		.cfi_restore 8
 123 0060 D244     		lw	s1,20(sp)
 124              		.cfi_restore 9
 125              	.LVL14:
 126 0062 4249     		lw	s2,16(sp)
 127              		.cfi_restore 18
 128 0064 B249     		lw	s3,12(sp)
 129              		.cfi_restore 19
 130 0066 0561     		addi	sp,sp,32
 131              	.LCFI1:
 132              		.cfi_def_cfa_offset 0
 133 0068 8280     		jr	ra
 134              		.cfi_endproc
 135              	.LFE4:
GAS LISTING /var/folders/_0/fbrtbm_x4pbf1b72ynjm3v580000gn/T//ccIVOSHN.s 			page 4


 137              		.section	.text.cs1237_set_drdy_as_input,"ax",@progbits
 138              		.align	1
 139              		.globl	cs1237_set_drdy_as_input
 141              	cs1237_set_drdy_as_input:
 142              	.LFB5:
  32:lib/cs1237/src/cs1237_gd32vf103_port.c **** void cs1237_set_drdy_as_input(){
 143              		.loc 1 32 32 is_stmt 1
 144              		.cfi_startproc
  33:lib/cs1237/src/cs1237_gd32vf103_port.c **** 	gpio_init(CS1237_DRDY_PORT, GPIO_MODE_IN_FLOATING, GPIO_OSPEED_50MHZ, CS1237_DRDY_PIN);
 145              		.loc 1 33 2
 146 0000 37150140 		li	a0,1073811456
 147 0004 93060008 		li	a3,128
 148 0008 0D46     		li	a2,3
 149 000a 9145     		li	a1,4
 150 000c 130505C0 		addi	a0,a0,-1024
 151 0010 17030000 		tail	gpio_init
 151      67000300 
 152              	.LVL15:
 153              		.cfi_endproc
 154              	.LFE5:
 156              		.section	.text.cs1237_set_drdy_as_output,"ax",@progbits
 157              		.align	1
 158              		.globl	cs1237_set_drdy_as_output
 160              	cs1237_set_drdy_as_output:
 161              	.LFB6:
  34:lib/cs1237/src/cs1237_gd32vf103_port.c **** }
  35:lib/cs1237/src/cs1237_gd32vf103_port.c **** void cs1237_set_drdy_as_output(){
 162              		.loc 1 35 33
 163              		.cfi_startproc
  36:lib/cs1237/src/cs1237_gd32vf103_port.c **** 	gpio_init(CS1237_DRDY_PORT, GPIO_MODE_OUT_PP, GPIO_OSPEED_50MHZ, CS1237_DRDY_PIN);
 164              		.loc 1 36 2
 165 0000 37150140 		li	a0,1073811456
 166 0004 93060008 		li	a3,128
 167 0008 0D46     		li	a2,3
 168 000a C145     		li	a1,16
 169 000c 130505C0 		addi	a0,a0,-1024
 170 0010 17030000 		tail	gpio_init
 170      67000300 
 171              	.LVL16:
 172              		.cfi_endproc
 173              	.LFE6:
 175              		.section	.text.cs1237_get_drdy_value,"ax",@progbits
 176              		.align	1
 177              		.globl	cs1237_get_drdy_value
 179              	cs1237_get_drdy_value:
 180              	.LFB7:
  37:lib/cs1237/src/cs1237_gd32vf103_port.c **** }
  38:lib/cs1237/src/cs1237_gd32vf103_port.c **** uint8_t cs1237_get_drdy_value(){
 181              		.loc 1 38 32
 182              		.cfi_startproc
  39:lib/cs1237/src/cs1237_gd32vf103_port.c **** 	return gpio_input_bit_get(CS1237_DRDY_PORT, CS1237_DRDY_PIN);
 183              		.loc 1 39 2
 184              		.loc 1 39 9 is_stmt 0
 185 0000 37150140 		li	a0,1073811456
  38:lib/cs1237/src/cs1237_gd32vf103_port.c **** 	return gpio_input_bit_get(CS1237_DRDY_PORT, CS1237_DRDY_PIN);
 186              		.loc 1 38 32
 187 0004 4111     		addi	sp,sp,-16
GAS LISTING /var/folders/_0/fbrtbm_x4pbf1b72ynjm3v580000gn/T//ccIVOSHN.s 			page 5


 188              	.LCFI2:
 189              		.cfi_def_cfa_offset 16
 190              		.loc 1 39 9
 191 0006 93050008 		li	a1,128
 192 000a 130505C0 		addi	a0,a0,-1024
  38:lib/cs1237/src/cs1237_gd32vf103_port.c **** 	return gpio_input_bit_get(CS1237_DRDY_PORT, CS1237_DRDY_PIN);
 193              		.loc 1 38 32
 194 000e 06C6     		sw	ra,12(sp)
 195              		.cfi_offset 1, -4
 196              		.loc 1 39 9
 197 0010 97000000 		call	gpio_input_bit_get
 197      E7800000 
 198              	.LVL17:
  40:lib/cs1237/src/cs1237_gd32vf103_port.c **** }
 199              		.loc 1 40 1
 200 0018 B240     		lw	ra,12(sp)
 201              		.cfi_restore 1
 202 001a 1375F50F 		andi	a0,a0,0xff
 203 001e 4101     		addi	sp,sp,16
 204              	.LCFI3:
 205              		.cfi_def_cfa_offset 0
 206 0020 8280     		jr	ra
 207              		.cfi_endproc
 208              	.LFE7:
 210              		.section	.text.cs1237_setup_pins,"ax",@progbits
 211              		.align	1
 212              		.globl	cs1237_setup_pins
 214              	cs1237_setup_pins:
 215              	.LFB8:
  41:lib/cs1237/src/cs1237_gd32vf103_port.c **** 
  42:lib/cs1237/src/cs1237_gd32vf103_port.c **** //clock pin -> output
  43:lib/cs1237/src/cs1237_gd32vf103_port.c **** //drdy pin  -> input
  44:lib/cs1237/src/cs1237_gd32vf103_port.c **** void cs1237_setup_pins(){
 216              		.loc 1 44 25 is_stmt 1
 217              		.cfi_startproc
  45:lib/cs1237/src/cs1237_gd32vf103_port.c **** 	rcu_periph_clock_enable(CS1237_CLK_RCU);
 218              		.loc 1 45 2
  44:lib/cs1237/src/cs1237_gd32vf103_port.c **** 	rcu_periph_clock_enable(CS1237_CLK_RCU);
 219              		.loc 1 44 25 is_stmt 0
 220 0000 4111     		addi	sp,sp,-16
 221              	.LCFI4:
 222              		.cfi_def_cfa_offset 16
 223              		.loc 1 45 2
 224 0002 13053060 		li	a0,1539
  44:lib/cs1237/src/cs1237_gd32vf103_port.c **** 	rcu_periph_clock_enable(CS1237_CLK_RCU);
 225              		.loc 1 44 25
 226 0006 06C6     		sw	ra,12(sp)
 227 0008 22C4     		sw	s0,8(sp)
 228              		.cfi_offset 1, -4
 229              		.cfi_offset 8, -8
 230              		.loc 1 45 2
 231 000a 97000000 		call	rcu_periph_clock_enable
 231      E7800000 
 232              	.LVL18:
  46:lib/cs1237/src/cs1237_gd32vf103_port.c ****     rcu_periph_clock_enable(CS1237_DRDY_RCU);
 233              		.loc 1 46 5 is_stmt 1
 234 0012 13053060 		li	a0,1539
GAS LISTING /var/folders/_0/fbrtbm_x4pbf1b72ynjm3v580000gn/T//ccIVOSHN.s 			page 6


 235 0016 97000000 		call	rcu_periph_clock_enable
 235      E7800000 
 236              	.LVL19:
  47:lib/cs1237/src/cs1237_gd32vf103_port.c **** 	gpio_init(CS1237_DRDY_PORT, GPIO_MODE_IN_FLOATING, GPIO_OSPEED_50MHZ, CS1237_DRDY_PIN);
 237              		.loc 1 47 2
 238 001e 37140140 		li	s0,1073811456
 239 0022 130504C0 		addi	a0,s0,-1024
 240 0026 93060008 		li	a3,128
 241 002a 0D46     		li	a2,3
 242 002c 9145     		li	a1,4
 243 002e 97000000 		call	gpio_init
 243      E7800000 
 244              	.LVL20:
  48:lib/cs1237/src/cs1237_gd32vf103_port.c **** 	gpio_init(CS1237_CLK_PORT, GPIO_MODE_OUT_PP, GPIO_OSPEED_50MHZ, CS1237_CLK_PIN);
 245              		.loc 1 48 2
 246 0036 130504C0 		addi	a0,s0,-1024
  49:lib/cs1237/src/cs1237_gd32vf103_port.c **** } ...
 247              		.loc 1 49 1 is_stmt 0
 248 003a 2244     		lw	s0,8(sp)
 249              		.cfi_restore 8
 250 003c B240     		lw	ra,12(sp)
 251              		.cfi_restore 1
  48:lib/cs1237/src/cs1237_gd32vf103_port.c **** 	gpio_init(CS1237_CLK_PORT, GPIO_MODE_OUT_PP, GPIO_OSPEED_50MHZ, CS1237_CLK_PIN);
 252              		.loc 1 48 2
 253 003e 93060004 		li	a3,64
 254              		.loc 1 49 1
  48:lib/cs1237/src/cs1237_gd32vf103_port.c **** 	gpio_init(CS1237_CLK_PORT, GPIO_MODE_OUT_PP, GPIO_OSPEED_50MHZ, CS1237_CLK_PIN);
 255              		.loc 1 48 2
 256 0042 0D46     		li	a2,3
 257 0044 C145     		li	a1,16
 258              		.loc 1 49 1
 259 0046 4101     		addi	sp,sp,16
 260              	.LCFI5:
 261              		.cfi_def_cfa_offset 0
  48:lib/cs1237/src/cs1237_gd32vf103_port.c **** 	gpio_init(CS1237_CLK_PORT, GPIO_MODE_OUT_PP, GPIO_OSPEED_50MHZ, CS1237_CLK_PIN);
 262              		.loc 1 48 2
 263 0048 17030000 		tail	gpio_init
 263      67000300 
 264              	.LVL21:
 265              		.cfi_endproc
 266              	.LFE8:
 268              		.text
 269              	.Letext0:
 270              		.file 2 "/Users/gustavsf/Desktop/toolchain-gd32v-v202-osx/compiler/riscv64-unknown-elf/include/mac
 271              		.file 3 "/Users/gustavsf/Desktop/toolchain-gd32v-v202-osx/compiler/riscv64-unknown-elf/include/sys
 272              		.file 4 "../../firmware/GD32VF103_standard_peripheral/Include/gd32vf103_rcu.h"
 273              		.file 5 "../../firmware/GD32VF103_standard_peripheral/Include/gd32vf103_gpio.h"
 274              		.file 6 "../../firmware/RISCV/drivers/n200_func.h"
 275              		.file 7 "../../firmware/GD32VF103_standard_peripheral/system_gd32vf103.h"
GAS LISTING /var/folders/_0/fbrtbm_x4pbf1b72ynjm3v580000gn/T//ccIVOSHN.s 			page 7


DEFINED SYMBOLS
                            *ABS*:0000000000000000 cs1237_gd32vf103_port.c
/var/folders/_0/fbrtbm_x4pbf1b72ynjm3v580000gn/T//ccIVOSHN.s:13     .text.cs1237_port_set_clock_pin:0000000000000000 cs1237_port_set_clock_pin
/var/folders/_0/fbrtbm_x4pbf1b72ynjm3v580000gn/T//ccIVOSHN.s:17     .text.cs1237_port_set_clock_pin:0000000000000000 .L0 
/var/folders/_0/fbrtbm_x4pbf1b72ynjm3v580000gn/T//ccIVOSHN.s:19     .text.cs1237_port_set_clock_pin:0000000000000000 .L0 
/var/folders/_0/fbrtbm_x4pbf1b72ynjm3v580000gn/T//ccIVOSHN.s:20     .text.cs1237_port_set_clock_pin:0000000000000000 .L0 
/var/folders/_0/fbrtbm_x4pbf1b72ynjm3v580000gn/T//ccIVOSHN.s:27     .text.cs1237_port_set_clock_pin:0000000000000016 .L0 
/var/folders/_0/fbrtbm_x4pbf1b72ynjm3v580000gn/T//ccIVOSHN.s:34     .text.cs1237_set_drdy_pin:0000000000000000 cs1237_set_drdy_pin
/var/folders/_0/fbrtbm_x4pbf1b72ynjm3v580000gn/T//ccIVOSHN.s:37     .text.cs1237_set_drdy_pin:0000000000000000 .L0 
/var/folders/_0/fbrtbm_x4pbf1b72ynjm3v580000gn/T//ccIVOSHN.s:39     .text.cs1237_set_drdy_pin:0000000000000000 .L0 
/var/folders/_0/fbrtbm_x4pbf1b72ynjm3v580000gn/T//ccIVOSHN.s:40     .text.cs1237_set_drdy_pin:0000000000000000 .L0 
/var/folders/_0/fbrtbm_x4pbf1b72ynjm3v580000gn/T//ccIVOSHN.s:47     .text.cs1237_set_drdy_pin:0000000000000016 .L0 
/var/folders/_0/fbrtbm_x4pbf1b72ynjm3v580000gn/T//ccIVOSHN.s:54     .text.cs1237_port_wait_min_455ns:0000000000000000 cs1237_port_wait_min_455ns
/var/folders/_0/fbrtbm_x4pbf1b72ynjm3v580000gn/T//ccIVOSHN.s:57     .text.cs1237_port_wait_min_455ns:0000000000000000 .L0 
/var/folders/_0/fbrtbm_x4pbf1b72ynjm3v580000gn/T//ccIVOSHN.s:58     .text.cs1237_port_wait_min_455ns:0000000000000000 .L0 
/var/folders/_0/fbrtbm_x4pbf1b72ynjm3v580000gn/T//ccIVOSHN.s:59     .text.cs1237_port_wait_min_455ns:0000000000000000 .L0 
/var/folders/_0/fbrtbm_x4pbf1b72ynjm3v580000gn/T//ccIVOSHN.s:60     .text.cs1237_port_wait_min_455ns:0000000000000000 .L0 
/var/folders/_0/fbrtbm_x4pbf1b72ynjm3v580000gn/T//ccIVOSHN.s:61     .text.cs1237_port_wait_min_455ns:0000000000000000 .L0 
/var/folders/_0/fbrtbm_x4pbf1b72ynjm3v580000gn/T//ccIVOSHN.s:63     .text.cs1237_port_wait_min_455ns:0000000000000002 .L0 
/var/folders/_0/fbrtbm_x4pbf1b72ynjm3v580000gn/T//ccIVOSHN.s:69     .text.cs1237_port_wait_min_455ns:000000000000000c .L0 
/var/folders/_0/fbrtbm_x4pbf1b72ynjm3v580000gn/T//ccIVOSHN.s:70     .text.cs1237_port_wait_min_455ns:000000000000000c .L0 
/var/folders/_0/fbrtbm_x4pbf1b72ynjm3v580000gn/T//ccIVOSHN.s:71     .text.cs1237_port_wait_min_455ns:000000000000000c .L0 
/var/folders/_0/fbrtbm_x4pbf1b72ynjm3v580000gn/T//ccIVOSHN.s:72     .text.cs1237_port_wait_min_455ns:000000000000000c .L0 
/var/folders/_0/fbrtbm_x4pbf1b72ynjm3v580000gn/T//ccIVOSHN.s:73     .text.cs1237_port_wait_min_455ns:000000000000000c .L0 
/var/folders/_0/fbrtbm_x4pbf1b72ynjm3v580000gn/T//ccIVOSHN.s:75     .text.cs1237_port_wait_min_455ns:000000000000000c .L0 
/var/folders/_0/fbrtbm_x4pbf1b72ynjm3v580000gn/T//ccIVOSHN.s:82     .text.cs1237_port_wait_min_455ns:0000000000000018 .L0 
/var/folders/_0/fbrtbm_x4pbf1b72ynjm3v580000gn/T//ccIVOSHN.s:83     .text.cs1237_port_wait_min_455ns:0000000000000018 .L0 
/var/folders/_0/fbrtbm_x4pbf1b72ynjm3v580000gn/T//ccIVOSHN.s:84     .text.cs1237_port_wait_min_455ns:0000000000000018 .L0 
/var/folders/_0/fbrtbm_x4pbf1b72ynjm3v580000gn/T//ccIVOSHN.s:90     .text.cs1237_port_wait_min_455ns:0000000000000024 .L0 
/var/folders/_0/fbrtbm_x4pbf1b72ynjm3v580000gn/T//ccIVOSHN.s:94     .text.cs1237_port_wait_min_455ns:000000000000002c .L0 
/var/folders/_0/fbrtbm_x4pbf1b72ynjm3v580000gn/T//ccIVOSHN.s:101    .text.cs1237_port_wait_min_455ns:0000000000000038 .L0 
/var/folders/_0/fbrtbm_x4pbf1b72ynjm3v580000gn/T//ccIVOSHN.s:102    .text.cs1237_port_wait_min_455ns:0000000000000038 .L0 
/var/folders/_0/fbrtbm_x4pbf1b72ynjm3v580000gn/T//ccIVOSHN.s:103    .text.cs1237_port_wait_min_455ns:0000000000000038 .L0 
/var/folders/_0/fbrtbm_x4pbf1b72ynjm3v580000gn/T//ccIVOSHN.s:106    .text.cs1237_port_wait_min_455ns:0000000000000040 .L0 
/var/folders/_0/fbrtbm_x4pbf1b72ynjm3v580000gn/T//ccIVOSHN.s:108    .text.cs1237_port_wait_min_455ns:0000000000000044 .L0 
/var/folders/_0/fbrtbm_x4pbf1b72ynjm3v580000gn/T//ccIVOSHN.s:113    .text.cs1237_port_wait_min_455ns:0000000000000050 .L0 
/var/folders/_0/fbrtbm_x4pbf1b72ynjm3v580000gn/T//ccIVOSHN.s:115    .text.cs1237_port_wait_min_455ns:0000000000000054 .L0 
/var/folders/_0/fbrtbm_x4pbf1b72ynjm3v580000gn/T//ccIVOSHN.s:119    .text.cs1237_port_wait_min_455ns:000000000000005c .L0 
/var/folders/_0/fbrtbm_x4pbf1b72ynjm3v580000gn/T//ccIVOSHN.s:120    .text.cs1237_port_wait_min_455ns:000000000000005e .L0 
/var/folders/_0/fbrtbm_x4pbf1b72ynjm3v580000gn/T//ccIVOSHN.s:122    .text.cs1237_port_wait_min_455ns:0000000000000060 .L0 
/var/folders/_0/fbrtbm_x4pbf1b72ynjm3v580000gn/T//ccIVOSHN.s:124    .text.cs1237_port_wait_min_455ns:0000000000000062 .L0 
/var/folders/_0/fbrtbm_x4pbf1b72ynjm3v580000gn/T//ccIVOSHN.s:127    .text.cs1237_port_wait_min_455ns:0000000000000064 .L0 
/var/folders/_0/fbrtbm_x4pbf1b72ynjm3v580000gn/T//ccIVOSHN.s:129    .text.cs1237_port_wait_min_455ns:0000000000000066 .L0 
/var/folders/_0/fbrtbm_x4pbf1b72ynjm3v580000gn/T//ccIVOSHN.s:132    .text.cs1237_port_wait_min_455ns:0000000000000068 .L0 
/var/folders/_0/fbrtbm_x4pbf1b72ynjm3v580000gn/T//ccIVOSHN.s:134    .text.cs1237_port_wait_min_455ns:000000000000006a .L0 
/var/folders/_0/fbrtbm_x4pbf1b72ynjm3v580000gn/T//ccIVOSHN.s:141    .text.cs1237_set_drdy_as_input:0000000000000000 cs1237_set_drdy_as_input
/var/folders/_0/fbrtbm_x4pbf1b72ynjm3v580000gn/T//ccIVOSHN.s:144    .text.cs1237_set_drdy_as_input:0000000000000000 .L0 
/var/folders/_0/fbrtbm_x4pbf1b72ynjm3v580000gn/T//ccIVOSHN.s:145    .text.cs1237_set_drdy_as_input:0000000000000000 .L0 
/var/folders/_0/fbrtbm_x4pbf1b72ynjm3v580000gn/T//ccIVOSHN.s:146    .text.cs1237_set_drdy_as_input:0000000000000000 .L0 
/var/folders/_0/fbrtbm_x4pbf1b72ynjm3v580000gn/T//ccIVOSHN.s:153    .text.cs1237_set_drdy_as_input:0000000000000018 .L0 
/var/folders/_0/fbrtbm_x4pbf1b72ynjm3v580000gn/T//ccIVOSHN.s:160    .text.cs1237_set_drdy_as_output:0000000000000000 cs1237_set_drdy_as_output
/var/folders/_0/fbrtbm_x4pbf1b72ynjm3v580000gn/T//ccIVOSHN.s:163    .text.cs1237_set_drdy_as_output:0000000000000000 .L0 
/var/folders/_0/fbrtbm_x4pbf1b72ynjm3v580000gn/T//ccIVOSHN.s:164    .text.cs1237_set_drdy_as_output:0000000000000000 .L0 
/var/folders/_0/fbrtbm_x4pbf1b72ynjm3v580000gn/T//ccIVOSHN.s:165    .text.cs1237_set_drdy_as_output:0000000000000000 .L0 
/var/folders/_0/fbrtbm_x4pbf1b72ynjm3v580000gn/T//ccIVOSHN.s:172    .text.cs1237_set_drdy_as_output:0000000000000018 .L0 
/var/folders/_0/fbrtbm_x4pbf1b72ynjm3v580000gn/T//ccIVOSHN.s:179    .text.cs1237_get_drdy_value:0000000000000000 cs1237_get_drdy_value
/var/folders/_0/fbrtbm_x4pbf1b72ynjm3v580000gn/T//ccIVOSHN.s:182    .text.cs1237_get_drdy_value:0000000000000000 .L0 
GAS LISTING /var/folders/_0/fbrtbm_x4pbf1b72ynjm3v580000gn/T//ccIVOSHN.s 			page 8


/var/folders/_0/fbrtbm_x4pbf1b72ynjm3v580000gn/T//ccIVOSHN.s:183    .text.cs1237_get_drdy_value:0000000000000000 .L0 
/var/folders/_0/fbrtbm_x4pbf1b72ynjm3v580000gn/T//ccIVOSHN.s:184    .text.cs1237_get_drdy_value:0000000000000000 .L0 
/var/folders/_0/fbrtbm_x4pbf1b72ynjm3v580000gn/T//ccIVOSHN.s:185    .text.cs1237_get_drdy_value:0000000000000000 .L0 
/var/folders/_0/fbrtbm_x4pbf1b72ynjm3v580000gn/T//ccIVOSHN.s:187    .text.cs1237_get_drdy_value:0000000000000004 .L0 
/var/folders/_0/fbrtbm_x4pbf1b72ynjm3v580000gn/T//ccIVOSHN.s:189    .text.cs1237_get_drdy_value:0000000000000006 .L0 
/var/folders/_0/fbrtbm_x4pbf1b72ynjm3v580000gn/T//ccIVOSHN.s:191    .text.cs1237_get_drdy_value:0000000000000006 .L0 
/var/folders/_0/fbrtbm_x4pbf1b72ynjm3v580000gn/T//ccIVOSHN.s:194    .text.cs1237_get_drdy_value:000000000000000e .L0 
/var/folders/_0/fbrtbm_x4pbf1b72ynjm3v580000gn/T//ccIVOSHN.s:195    .text.cs1237_get_drdy_value:0000000000000010 .L0 
/var/folders/_0/fbrtbm_x4pbf1b72ynjm3v580000gn/T//ccIVOSHN.s:197    .text.cs1237_get_drdy_value:0000000000000010 .L0 
/var/folders/_0/fbrtbm_x4pbf1b72ynjm3v580000gn/T//ccIVOSHN.s:200    .text.cs1237_get_drdy_value:0000000000000018 .L0 
/var/folders/_0/fbrtbm_x4pbf1b72ynjm3v580000gn/T//ccIVOSHN.s:201    .text.cs1237_get_drdy_value:000000000000001a .L0 
/var/folders/_0/fbrtbm_x4pbf1b72ynjm3v580000gn/T//ccIVOSHN.s:205    .text.cs1237_get_drdy_value:0000000000000020 .L0 
/var/folders/_0/fbrtbm_x4pbf1b72ynjm3v580000gn/T//ccIVOSHN.s:207    .text.cs1237_get_drdy_value:0000000000000022 .L0 
/var/folders/_0/fbrtbm_x4pbf1b72ynjm3v580000gn/T//ccIVOSHN.s:214    .text.cs1237_setup_pins:0000000000000000 cs1237_setup_pins
/var/folders/_0/fbrtbm_x4pbf1b72ynjm3v580000gn/T//ccIVOSHN.s:217    .text.cs1237_setup_pins:0000000000000000 .L0 
/var/folders/_0/fbrtbm_x4pbf1b72ynjm3v580000gn/T//ccIVOSHN.s:218    .text.cs1237_setup_pins:0000000000000000 .L0 
/var/folders/_0/fbrtbm_x4pbf1b72ynjm3v580000gn/T//ccIVOSHN.s:219    .text.cs1237_setup_pins:0000000000000000 .L0 
/var/folders/_0/fbrtbm_x4pbf1b72ynjm3v580000gn/T//ccIVOSHN.s:220    .text.cs1237_setup_pins:0000000000000000 .L0 
/var/folders/_0/fbrtbm_x4pbf1b72ynjm3v580000gn/T//ccIVOSHN.s:222    .text.cs1237_setup_pins:0000000000000002 .L0 
/var/folders/_0/fbrtbm_x4pbf1b72ynjm3v580000gn/T//ccIVOSHN.s:224    .text.cs1237_setup_pins:0000000000000002 .L0 
/var/folders/_0/fbrtbm_x4pbf1b72ynjm3v580000gn/T//ccIVOSHN.s:226    .text.cs1237_setup_pins:0000000000000006 .L0 
/var/folders/_0/fbrtbm_x4pbf1b72ynjm3v580000gn/T//ccIVOSHN.s:228    .text.cs1237_setup_pins:000000000000000a .L0 
/var/folders/_0/fbrtbm_x4pbf1b72ynjm3v580000gn/T//ccIVOSHN.s:229    .text.cs1237_setup_pins:000000000000000a .L0 
/var/folders/_0/fbrtbm_x4pbf1b72ynjm3v580000gn/T//ccIVOSHN.s:231    .text.cs1237_setup_pins:000000000000000a .L0 
/var/folders/_0/fbrtbm_x4pbf1b72ynjm3v580000gn/T//ccIVOSHN.s:234    .text.cs1237_setup_pins:0000000000000012 .L0 
/var/folders/_0/fbrtbm_x4pbf1b72ynjm3v580000gn/T//ccIVOSHN.s:238    .text.cs1237_setup_pins:000000000000001e .L0 
/var/folders/_0/fbrtbm_x4pbf1b72ynjm3v580000gn/T//ccIVOSHN.s:246    .text.cs1237_setup_pins:0000000000000036 .L0 
/var/folders/_0/fbrtbm_x4pbf1b72ynjm3v580000gn/T//ccIVOSHN.s:248    .text.cs1237_setup_pins:000000000000003a .L0 
/var/folders/_0/fbrtbm_x4pbf1b72ynjm3v580000gn/T//ccIVOSHN.s:249    .text.cs1237_setup_pins:000000000000003c .L0 
/var/folders/_0/fbrtbm_x4pbf1b72ynjm3v580000gn/T//ccIVOSHN.s:251    .text.cs1237_setup_pins:000000000000003e .L0 
/var/folders/_0/fbrtbm_x4pbf1b72ynjm3v580000gn/T//ccIVOSHN.s:253    .text.cs1237_setup_pins:000000000000003e .L0 
/var/folders/_0/fbrtbm_x4pbf1b72ynjm3v580000gn/T//ccIVOSHN.s:255    .text.cs1237_setup_pins:0000000000000042 .L0 
/var/folders/_0/fbrtbm_x4pbf1b72ynjm3v580000gn/T//ccIVOSHN.s:256    .text.cs1237_setup_pins:0000000000000042 .L0 
/var/folders/_0/fbrtbm_x4pbf1b72ynjm3v580000gn/T//ccIVOSHN.s:259    .text.cs1237_setup_pins:0000000000000046 .L0 
/var/folders/_0/fbrtbm_x4pbf1b72ynjm3v580000gn/T//ccIVOSHN.s:261    .text.cs1237_setup_pins:0000000000000048 .L0 
/var/folders/_0/fbrtbm_x4pbf1b72ynjm3v580000gn/T//ccIVOSHN.s:263    .text.cs1237_setup_pins:0000000000000048 .L0 
/var/folders/_0/fbrtbm_x4pbf1b72ynjm3v580000gn/T//ccIVOSHN.s:265    .text.cs1237_setup_pins:0000000000000050 .L0 
/var/folders/_0/fbrtbm_x4pbf1b72ynjm3v580000gn/T//ccIVOSHN.s:30     .text.cs1237_port_set_clock_pin:0000000000000016 .L0 
/var/folders/_0/fbrtbm_x4pbf1b72ynjm3v580000gn/T//ccIVOSHN.s:50     .text.cs1237_set_drdy_pin:0000000000000016 .L0 
/var/folders/_0/fbrtbm_x4pbf1b72ynjm3v580000gn/T//ccIVOSHN.s:137    .text.cs1237_port_wait_min_455ns:000000000000006a .L0 
/var/folders/_0/fbrtbm_x4pbf1b72ynjm3v580000gn/T//ccIVOSHN.s:156    .text.cs1237_set_drdy_as_input:0000000000000018 .L0 
/var/folders/_0/fbrtbm_x4pbf1b72ynjm3v580000gn/T//ccIVOSHN.s:175    .text.cs1237_set_drdy_as_output:0000000000000018 .L0 
/var/folders/_0/fbrtbm_x4pbf1b72ynjm3v580000gn/T//ccIVOSHN.s:210    .text.cs1237_get_drdy_value:0000000000000022 .L0 
/var/folders/_0/fbrtbm_x4pbf1b72ynjm3v580000gn/T//ccIVOSHN.s:268    .text.cs1237_setup_pins:0000000000000050 .L0 
                     .debug_frame:0000000000000000 .L0 
/var/folders/_0/fbrtbm_x4pbf1b72ynjm3v580000gn/T//ccIVOSHN.s:92     .text.cs1237_port_wait_min_455ns:000000000000002c .L5
/var/folders/_0/fbrtbm_x4pbf1b72ynjm3v580000gn/T//ccIVOSHN.s:80     .text.cs1237_port_wait_min_455ns:0000000000000018 .L4
/var/folders/_0/fbrtbm_x4pbf1b72ynjm3v580000gn/T//ccIVOSHN.s:117    .text.cs1237_port_wait_min_455ns:000000000000005c .L3
/var/folders/_0/fbrtbm_x4pbf1b72ynjm3v580000gn/T//ccIVOSHN.s:99     .text.cs1237_port_wait_min_455ns:0000000000000038 .L6
/var/folders/_0/fbrtbm_x4pbf1b72ynjm3v580000gn/T//ccIVOSHN.s:859    .debug_abbrev:0000000000000000 .Ldebug_abbrev0
/var/folders/_0/fbrtbm_x4pbf1b72ynjm3v580000gn/T//ccIVOSHN.s:1387   .debug_str:0000000000000013 .LASF67
/var/folders/_0/fbrtbm_x4pbf1b72ynjm3v580000gn/T//ccIVOSHN.s:1459   .debug_str:000000000000022b .LASF68
/var/folders/_0/fbrtbm_x4pbf1b72ynjm3v580000gn/T//ccIVOSHN.s:1481   .debug_str:00000000000002d7 .LASF69
/var/folders/_0/fbrtbm_x4pbf1b72ynjm3v580000gn/T//ccIVOSHN.s:1365   .debug_ranges:0000000000000000 .Ldebug_ranges0
/var/folders/_0/fbrtbm_x4pbf1b72ynjm3v580000gn/T//ccIVOSHN.s:1383   .debug_line:0000000000000000 .Ldebug_line0
/var/folders/_0/fbrtbm_x4pbf1b72ynjm3v580000gn/T//ccIVOSHN.s:1461   .debug_str:0000000000000252 .LASF0
/var/folders/_0/fbrtbm_x4pbf1b72ynjm3v580000gn/T//ccIVOSHN.s:1527   .debug_str:000000000000043d .LASF5
GAS LISTING /var/folders/_0/fbrtbm_x4pbf1b72ynjm3v580000gn/T//ccIVOSHN.s 			page 9


/var/folders/_0/fbrtbm_x4pbf1b72ynjm3v580000gn/T//ccIVOSHN.s:1449   .debug_str:00000000000001ea .LASF1
/var/folders/_0/fbrtbm_x4pbf1b72ynjm3v580000gn/T//ccIVOSHN.s:1407   .debug_str:00000000000000fe .LASF2
/var/folders/_0/fbrtbm_x4pbf1b72ynjm3v580000gn/T//ccIVOSHN.s:1475   .debug_str:00000000000002b2 .LASF3
/var/folders/_0/fbrtbm_x4pbf1b72ynjm3v580000gn/T//ccIVOSHN.s:1425   .debug_str:000000000000016d .LASF4
/var/folders/_0/fbrtbm_x4pbf1b72ynjm3v580000gn/T//ccIVOSHN.s:1403   .debug_str:00000000000000eb .LASF6
/var/folders/_0/fbrtbm_x4pbf1b72ynjm3v580000gn/T//ccIVOSHN.s:1495   .debug_str:0000000000000360 .LASF7
/var/folders/_0/fbrtbm_x4pbf1b72ynjm3v580000gn/T//ccIVOSHN.s:1401   .debug_str:00000000000000dd .LASF8
/var/folders/_0/fbrtbm_x4pbf1b72ynjm3v580000gn/T//ccIVOSHN.s:1487   .debug_str:000000000000032d .LASF9
/var/folders/_0/fbrtbm_x4pbf1b72ynjm3v580000gn/T//ccIVOSHN.s:1465   .debug_str:0000000000000267 .LASF10
/var/folders/_0/fbrtbm_x4pbf1b72ynjm3v580000gn/T//ccIVOSHN.s:1469   .debug_str:0000000000000287 .LASF11
/var/folders/_0/fbrtbm_x4pbf1b72ynjm3v580000gn/T//ccIVOSHN.s:1415   .debug_str:000000000000012e .LASF12
/var/folders/_0/fbrtbm_x4pbf1b72ynjm3v580000gn/T//ccIVOSHN.s:1467   .debug_str:000000000000027e .LASF13
/var/folders/_0/fbrtbm_x4pbf1b72ynjm3v580000gn/T//ccIVOSHN.s:1463   .debug_str:000000000000025e .LASF14
/var/folders/_0/fbrtbm_x4pbf1b72ynjm3v580000gn/T//ccIVOSHN.s:1389   .debug_str:000000000000009b .LASF70
/var/folders/_0/fbrtbm_x4pbf1b72ynjm3v580000gn/T//ccIVOSHN.s:1483   .debug_str:000000000000031b .LASF15
/var/folders/_0/fbrtbm_x4pbf1b72ynjm3v580000gn/T//ccIVOSHN.s:1485   .debug_str:0000000000000324 .LASF16
/var/folders/_0/fbrtbm_x4pbf1b72ynjm3v580000gn/T//ccIVOSHN.s:1523   .debug_str:0000000000000425 .LASF17
/var/folders/_0/fbrtbm_x4pbf1b72ynjm3v580000gn/T//ccIVOSHN.s:1521   .debug_str:000000000000041c .LASF18
/var/folders/_0/fbrtbm_x4pbf1b72ynjm3v580000gn/T//ccIVOSHN.s:1507   .debug_str:00000000000003af .LASF19
/var/folders/_0/fbrtbm_x4pbf1b72ynjm3v580000gn/T//ccIVOSHN.s:1435   .debug_str:000000000000019c .LASF20
/var/folders/_0/fbrtbm_x4pbf1b72ynjm3v580000gn/T//ccIVOSHN.s:1437   .debug_str:00000000000001a7 .LASF21
/var/folders/_0/fbrtbm_x4pbf1b72ynjm3v580000gn/T//ccIVOSHN.s:1439   .debug_str:00000000000001b2 .LASF22
/var/folders/_0/fbrtbm_x4pbf1b72ynjm3v580000gn/T//ccIVOSHN.s:1441   .debug_str:00000000000001bd .LASF23
/var/folders/_0/fbrtbm_x4pbf1b72ynjm3v580000gn/T//ccIVOSHN.s:1443   .debug_str:00000000000001c8 .LASF24
/var/folders/_0/fbrtbm_x4pbf1b72ynjm3v580000gn/T//ccIVOSHN.s:1445   .debug_str:00000000000001d3 .LASF25
/var/folders/_0/fbrtbm_x4pbf1b72ynjm3v580000gn/T//ccIVOSHN.s:1423   .debug_str:0000000000000163 .LASF26
/var/folders/_0/fbrtbm_x4pbf1b72ynjm3v580000gn/T//ccIVOSHN.s:1429   .debug_str:000000000000017f .LASF27
/var/folders/_0/fbrtbm_x4pbf1b72ynjm3v580000gn/T//ccIVOSHN.s:1431   .debug_str:0000000000000188 .LASF28
/var/folders/_0/fbrtbm_x4pbf1b72ynjm3v580000gn/T//ccIVOSHN.s:1503   .debug_str:0000000000000399 .LASF29
/var/folders/_0/fbrtbm_x4pbf1b72ynjm3v580000gn/T//ccIVOSHN.s:1505   .debug_str:00000000000003a4 .LASF30
/var/folders/_0/fbrtbm_x4pbf1b72ynjm3v580000gn/T//ccIVOSHN.s:1509   .debug_str:00000000000003b9 .LASF31
/var/folders/_0/fbrtbm_x4pbf1b72ynjm3v580000gn/T//ccIVOSHN.s:1511   .debug_str:00000000000003c3 .LASF32
/var/folders/_0/fbrtbm_x4pbf1b72ynjm3v580000gn/T//ccIVOSHN.s:1477   .debug_str:00000000000002c5 .LASF33
/var/folders/_0/fbrtbm_x4pbf1b72ynjm3v580000gn/T//ccIVOSHN.s:1479   .debug_str:00000000000002ce .LASF34
/var/folders/_0/fbrtbm_x4pbf1b72ynjm3v580000gn/T//ccIVOSHN.s:1419   .debug_str:0000000000000151 .LASF35
/var/folders/_0/fbrtbm_x4pbf1b72ynjm3v580000gn/T//ccIVOSHN.s:1421   .debug_str:000000000000015a .LASF36
/var/folders/_0/fbrtbm_x4pbf1b72ynjm3v580000gn/T//ccIVOSHN.s:1457   .debug_str:0000000000000222 .LASF37
/var/folders/_0/fbrtbm_x4pbf1b72ynjm3v580000gn/T//ccIVOSHN.s:1473   .debug_str:00000000000002aa .LASF38
/var/folders/_0/fbrtbm_x4pbf1b72ynjm3v580000gn/T//ccIVOSHN.s:1489   .debug_str:0000000000000338 .LASF39
/var/folders/_0/fbrtbm_x4pbf1b72ynjm3v580000gn/T//ccIVOSHN.s:1405   .debug_str:00000000000000f6 .LASF40
/var/folders/_0/fbrtbm_x4pbf1b72ynjm3v580000gn/T//ccIVOSHN.s:1491   .debug_str:0000000000000340 .LASF41
/var/folders/_0/fbrtbm_x4pbf1b72ynjm3v580000gn/T//ccIVOSHN.s:1391   .debug_str:00000000000000ab .LASF42
/var/folders/_0/fbrtbm_x4pbf1b72ynjm3v580000gn/T//ccIVOSHN.s:1393   .debug_str:00000000000000b5 .LASF43
/var/folders/_0/fbrtbm_x4pbf1b72ynjm3v580000gn/T//ccIVOSHN.s:1395   .debug_str:00000000000000bf .LASF44
/var/folders/_0/fbrtbm_x4pbf1b72ynjm3v580000gn/T//ccIVOSHN.s:1397   .debug_str:00000000000000c9 .LASF45
/var/folders/_0/fbrtbm_x4pbf1b72ynjm3v580000gn/T//ccIVOSHN.s:1399   .debug_str:00000000000000d3 .LASF46
/var/folders/_0/fbrtbm_x4pbf1b72ynjm3v580000gn/T//ccIVOSHN.s:1453   .debug_str:0000000000000210 .LASF47
/var/folders/_0/fbrtbm_x4pbf1b72ynjm3v580000gn/T//ccIVOSHN.s:1455   .debug_str:0000000000000219 .LASF48
/var/folders/_0/fbrtbm_x4pbf1b72ynjm3v580000gn/T//ccIVOSHN.s:1433   .debug_str:0000000000000191 .LASF49
/var/folders/_0/fbrtbm_x4pbf1b72ynjm3v580000gn/T//ccIVOSHN.s:1427   .debug_str:0000000000000176 .LASF50
/var/folders/_0/fbrtbm_x4pbf1b72ynjm3v580000gn/T//ccIVOSHN.s:1501   .debug_str:000000000000038e .LASF51
/var/folders/_0/fbrtbm_x4pbf1b72ynjm3v580000gn/T//ccIVOSHN.s:1447   .debug_str:00000000000001de .LASF52
/var/folders/_0/fbrtbm_x4pbf1b72ynjm3v580000gn/T//ccIVOSHN.s:1497   .debug_str:0000000000000372 .LASF53
/var/folders/_0/fbrtbm_x4pbf1b72ynjm3v580000gn/T//ccIVOSHN.s:215    .text.cs1237_setup_pins:0000000000000000 .LFB8
/var/folders/_0/fbrtbm_x4pbf1b72ynjm3v580000gn/T//ccIVOSHN.s:266    .text.cs1237_setup_pins:0000000000000050 .LFE8
/var/folders/_0/fbrtbm_x4pbf1b72ynjm3v580000gn/T//ccIVOSHN.s:1225   .debug_loc:0000000000000000 .LLST6
/var/folders/_0/fbrtbm_x4pbf1b72ynjm3v580000gn/T//ccIVOSHN.s:232    .text.cs1237_setup_pins:0000000000000012 .LVL18
GAS LISTING /var/folders/_0/fbrtbm_x4pbf1b72ynjm3v580000gn/T//ccIVOSHN.s 			page 10


/var/folders/_0/fbrtbm_x4pbf1b72ynjm3v580000gn/T//ccIVOSHN.s:236    .text.cs1237_setup_pins:000000000000001e .LVL19
/var/folders/_0/fbrtbm_x4pbf1b72ynjm3v580000gn/T//ccIVOSHN.s:244    .text.cs1237_setup_pins:0000000000000036 .LVL20
/var/folders/_0/fbrtbm_x4pbf1b72ynjm3v580000gn/T//ccIVOSHN.s:264    .text.cs1237_setup_pins:0000000000000050 .LVL21
/var/folders/_0/fbrtbm_x4pbf1b72ynjm3v580000gn/T//ccIVOSHN.s:1471   .debug_str:0000000000000294 .LASF58
/var/folders/_0/fbrtbm_x4pbf1b72ynjm3v580000gn/T//ccIVOSHN.s:180    .text.cs1237_get_drdy_value:0000000000000000 .LFB7
/var/folders/_0/fbrtbm_x4pbf1b72ynjm3v580000gn/T//ccIVOSHN.s:208    .text.cs1237_get_drdy_value:0000000000000022 .LFE7
/var/folders/_0/fbrtbm_x4pbf1b72ynjm3v580000gn/T//ccIVOSHN.s:1243   .debug_loc:000000000000002c .LLST5
/var/folders/_0/fbrtbm_x4pbf1b72ynjm3v580000gn/T//ccIVOSHN.s:198    .text.cs1237_get_drdy_value:0000000000000018 .LVL17
/var/folders/_0/fbrtbm_x4pbf1b72ynjm3v580000gn/T//ccIVOSHN.s:1515   .debug_str:00000000000003dc .LASF54
/var/folders/_0/fbrtbm_x4pbf1b72ynjm3v580000gn/T//ccIVOSHN.s:161    .text.cs1237_set_drdy_as_output:0000000000000000 .LFB6
/var/folders/_0/fbrtbm_x4pbf1b72ynjm3v580000gn/T//ccIVOSHN.s:173    .text.cs1237_set_drdy_as_output:0000000000000018 .LFE6
/var/folders/_0/fbrtbm_x4pbf1b72ynjm3v580000gn/T//ccIVOSHN.s:171    .text.cs1237_set_drdy_as_output:0000000000000018 .LVL16
/var/folders/_0/fbrtbm_x4pbf1b72ynjm3v580000gn/T//ccIVOSHN.s:1493   .debug_str:0000000000000347 .LASF55
/var/folders/_0/fbrtbm_x4pbf1b72ynjm3v580000gn/T//ccIVOSHN.s:142    .text.cs1237_set_drdy_as_input:0000000000000000 .LFB5
/var/folders/_0/fbrtbm_x4pbf1b72ynjm3v580000gn/T//ccIVOSHN.s:154    .text.cs1237_set_drdy_as_input:0000000000000018 .LFE5
/var/folders/_0/fbrtbm_x4pbf1b72ynjm3v580000gn/T//ccIVOSHN.s:152    .text.cs1237_set_drdy_as_input:0000000000000018 .LVL15
/var/folders/_0/fbrtbm_x4pbf1b72ynjm3v580000gn/T//ccIVOSHN.s:1417   .debug_str:0000000000000136 .LASF56
/var/folders/_0/fbrtbm_x4pbf1b72ynjm3v580000gn/T//ccIVOSHN.s:55     .text.cs1237_port_wait_min_455ns:0000000000000000 .LFB4
/var/folders/_0/fbrtbm_x4pbf1b72ynjm3v580000gn/T//ccIVOSHN.s:135    .text.cs1237_port_wait_min_455ns:000000000000006a .LFE4
/var/folders/_0/fbrtbm_x4pbf1b72ynjm3v580000gn/T//ccIVOSHN.s:1261   .debug_loc:0000000000000058 .LLST2
/var/folders/_0/fbrtbm_x4pbf1b72ynjm3v580000gn/T//ccIVOSHN.s:1411   .debug_str:000000000000010e .LASF57
/var/folders/_0/fbrtbm_x4pbf1b72ynjm3v580000gn/T//ccIVOSHN.s:1279   .debug_loc:0000000000000084 .LLST3
/var/folders/_0/fbrtbm_x4pbf1b72ynjm3v580000gn/T//ccIVOSHN.s:1517   .debug_str:00000000000003f6 .LASF71
/var/folders/_0/fbrtbm_x4pbf1b72ynjm3v580000gn/T//ccIVOSHN.s:1300   .debug_loc:00000000000000ac .LLST4
/var/folders/_0/fbrtbm_x4pbf1b72ynjm3v580000gn/T//ccIVOSHN.s:76     .text.cs1237_port_wait_min_455ns:0000000000000014 .LVL6
/var/folders/_0/fbrtbm_x4pbf1b72ynjm3v580000gn/T//ccIVOSHN.s:85     .text.cs1237_port_wait_min_455ns:0000000000000020 .LVL8
/var/folders/_0/fbrtbm_x4pbf1b72ynjm3v580000gn/T//ccIVOSHN.s:104    .text.cs1237_port_wait_min_455ns:0000000000000040 .LVL12
/var/folders/_0/fbrtbm_x4pbf1b72ynjm3v580000gn/T//ccIVOSHN.s:1413   .debug_str:000000000000011a .LASF59
/var/folders/_0/fbrtbm_x4pbf1b72ynjm3v580000gn/T//ccIVOSHN.s:35     .text.cs1237_set_drdy_pin:0000000000000000 .LFB3
/var/folders/_0/fbrtbm_x4pbf1b72ynjm3v580000gn/T//ccIVOSHN.s:48     .text.cs1237_set_drdy_pin:0000000000000016 .LFE3
/var/folders/_0/fbrtbm_x4pbf1b72ynjm3v580000gn/T//ccIVOSHN.s:1409   .debug_str:0000000000000108 .LASF61
/var/folders/_0/fbrtbm_x4pbf1b72ynjm3v580000gn/T//ccIVOSHN.s:1312   .debug_loc:00000000000000c4 .LLST1
/var/folders/_0/fbrtbm_x4pbf1b72ynjm3v580000gn/T//ccIVOSHN.s:46     .text.cs1237_set_drdy_pin:0000000000000016 .LVL5
/var/folders/_0/fbrtbm_x4pbf1b72ynjm3v580000gn/T//ccIVOSHN.s:1519   .debug_str:0000000000000402 .LASF60
/var/folders/_0/fbrtbm_x4pbf1b72ynjm3v580000gn/T//ccIVOSHN.s:14     .text.cs1237_port_set_clock_pin:0000000000000000 .LFB2
/var/folders/_0/fbrtbm_x4pbf1b72ynjm3v580000gn/T//ccIVOSHN.s:28     .text.cs1237_port_set_clock_pin:0000000000000016 .LFE2
/var/folders/_0/fbrtbm_x4pbf1b72ynjm3v580000gn/T//ccIVOSHN.s:1326   .debug_loc:00000000000000e5 .LLST0
/var/folders/_0/fbrtbm_x4pbf1b72ynjm3v580000gn/T//ccIVOSHN.s:26     .text.cs1237_port_set_clock_pin:0000000000000016 .LVL2
/var/folders/_0/fbrtbm_x4pbf1b72ynjm3v580000gn/T//ccIVOSHN.s:1451   .debug_str:00000000000001f8 .LASF62
/var/folders/_0/fbrtbm_x4pbf1b72ynjm3v580000gn/T//ccIVOSHN.s:1499   .debug_str:0000000000000384 .LASF63
/var/folders/_0/fbrtbm_x4pbf1b72ynjm3v580000gn/T//ccIVOSHN.s:1385   .debug_str:0000000000000000 .LASF64
/var/folders/_0/fbrtbm_x4pbf1b72ynjm3v580000gn/T//ccIVOSHN.s:1525   .debug_str:000000000000042d .LASF65
/var/folders/_0/fbrtbm_x4pbf1b72ynjm3v580000gn/T//ccIVOSHN.s:1513   .debug_str:00000000000003cd .LASF66
/var/folders/_0/fbrtbm_x4pbf1b72ynjm3v580000gn/T//ccIVOSHN.s:221    .text.cs1237_setup_pins:0000000000000002 .LCFI4
/var/folders/_0/fbrtbm_x4pbf1b72ynjm3v580000gn/T//ccIVOSHN.s:260    .text.cs1237_setup_pins:0000000000000048 .LCFI5
/var/folders/_0/fbrtbm_x4pbf1b72ynjm3v580000gn/T//ccIVOSHN.s:188    .text.cs1237_get_drdy_value:0000000000000006 .LCFI2
/var/folders/_0/fbrtbm_x4pbf1b72ynjm3v580000gn/T//ccIVOSHN.s:204    .text.cs1237_get_drdy_value:0000000000000020 .LCFI3
/var/folders/_0/fbrtbm_x4pbf1b72ynjm3v580000gn/T//ccIVOSHN.s:62     .text.cs1237_port_wait_min_455ns:0000000000000002 .LCFI0
/var/folders/_0/fbrtbm_x4pbf1b72ynjm3v580000gn/T//ccIVOSHN.s:131    .text.cs1237_port_wait_min_455ns:0000000000000068 .LCFI1
/var/folders/_0/fbrtbm_x4pbf1b72ynjm3v580000gn/T//ccIVOSHN.s:88     .text.cs1237_port_wait_min_455ns:0000000000000024 .LVL9
/var/folders/_0/fbrtbm_x4pbf1b72ynjm3v580000gn/T//ccIVOSHN.s:98     .text.cs1237_port_wait_min_455ns:0000000000000038 .LVL11
/var/folders/_0/fbrtbm_x4pbf1b72ynjm3v580000gn/T//ccIVOSHN.s:125    .text.cs1237_port_wait_min_455ns:0000000000000062 .LVL14
/var/folders/_0/fbrtbm_x4pbf1b72ynjm3v580000gn/T//ccIVOSHN.s:79     .text.cs1237_port_wait_min_455ns:0000000000000018 .LVL7
/var/folders/_0/fbrtbm_x4pbf1b72ynjm3v580000gn/T//ccIVOSHN.s:95     .text.cs1237_port_wait_min_455ns:0000000000000030 .LVL10
/var/folders/_0/fbrtbm_x4pbf1b72ynjm3v580000gn/T//ccIVOSHN.s:38     .text.cs1237_set_drdy_pin:0000000000000000 .LVL3
/var/folders/_0/fbrtbm_x4pbf1b72ynjm3v580000gn/T//ccIVOSHN.s:42     .text.cs1237_set_drdy_pin:0000000000000006 .LVL4
/var/folders/_0/fbrtbm_x4pbf1b72ynjm3v580000gn/T//ccIVOSHN.s:18     .text.cs1237_port_set_clock_pin:0000000000000000 .LVL0
GAS LISTING /var/folders/_0/fbrtbm_x4pbf1b72ynjm3v580000gn/T//ccIVOSHN.s 			page 11


/var/folders/_0/fbrtbm_x4pbf1b72ynjm3v580000gn/T//ccIVOSHN.s:22     .text.cs1237_port_set_clock_pin:0000000000000006 .LVL1
/var/folders/_0/fbrtbm_x4pbf1b72ynjm3v580000gn/T//ccIVOSHN.s:277    .debug_info:0000000000000000 .Ldebug_info0

UNDEFINED SYMBOLS
gpio_bit_write
get_timer_value
SystemCoreClock
gpio_init
gpio_input_bit_get
rcu_periph_clock_enable
