GAS LISTING /var/folders/_0/fbrtbm_x4pbf1b72ynjm3v580000gn/T//ccIuB4VY.s 			page 1


   1              		.file	"cs1237.c"
   2              		.option nopic
   3              		.attribute arch, "rv32i2p0_m2p0_a2p0_c2p0"
   4              		.attribute unaligned_access, 0
   5              		.attribute stack_align, 16
   6              		.text
   7              	.Ltext0:
   8              		.cfi_sections	.debug_frame
   9              		.section	.text.clk,"ax",@progbits
  10              		.align	1
  11              		.globl	clk
  13              	clk:
  14              	.LFB0:
  15              		.file 1 "lib/cs1237/src/cs1237.c"
   1:lib/cs1237/src/cs1237.c **** #include "cs1237.h"
   2:lib/cs1237/src/cs1237.c **** #include "cs1237_port.h"
   3:lib/cs1237/src/cs1237.c **** #include "stdint.h"
   4:lib/cs1237/src/cs1237.c **** 
   5:lib/cs1237/src/cs1237.c **** uint8_t current_config = 0x0C;
   6:lib/cs1237/src/cs1237.c **** //Private finctions, mainly for porting
   7:lib/cs1237/src/cs1237.c **** void clk(uint8_t value){
  16              		.loc 1 7 24
  17              		.cfi_startproc
  18              	.LVL0:
   8:lib/cs1237/src/cs1237.c **** 	cs1237_port_set_clock_pin(value);
  19              		.loc 1 8 2
  20 0000 17030000 		tail	cs1237_port_set_clock_pin
  20      67000300 
  21              	.LVL1:
  22              		.cfi_endproc
  23              	.LFE0:
  25              		.section	.text.wait,"ax",@progbits
  26              		.align	1
  27              		.globl	wait
  29              	wait:
  30              	.LFB1:
   9:lib/cs1237/src/cs1237.c **** }
  10:lib/cs1237/src/cs1237.c **** 
  11:lib/cs1237/src/cs1237.c **** void wait(){
  31              		.loc 1 11 12
  32              		.cfi_startproc
  12:lib/cs1237/src/cs1237.c **** 	cs1237_port_wait_min_455ns();
  33              		.loc 1 12 2
  34 0000 17030000 		tail	cs1237_port_wait_min_455ns
  34      67000300 
  35              	.LVL2:
  36              		.cfi_endproc
  37              	.LFE1:
  39              		.section	.text.drdy_input,"ax",@progbits
  40              		.align	1
  41              		.globl	drdy_input
  43              	drdy_input:
  44              	.LFB2:
  13:lib/cs1237/src/cs1237.c **** }
  14:lib/cs1237/src/cs1237.c **** 
  15:lib/cs1237/src/cs1237.c **** void drdy_input(){
  45              		.loc 1 15 18
GAS LISTING /var/folders/_0/fbrtbm_x4pbf1b72ynjm3v580000gn/T//ccIuB4VY.s 			page 2


  46              		.cfi_startproc
  16:lib/cs1237/src/cs1237.c **** 	cs1237_set_drdy_as_input();
  47              		.loc 1 16 2
  48 0000 17030000 		tail	cs1237_set_drdy_as_input
  48      67000300 
  49              	.LVL3:
  50              		.cfi_endproc
  51              	.LFE2:
  53              		.section	.text.drdy_output,"ax",@progbits
  54              		.align	1
  55              		.globl	drdy_output
  57              	drdy_output:
  58              	.LFB3:
  17:lib/cs1237/src/cs1237.c **** }
  18:lib/cs1237/src/cs1237.c **** 
  19:lib/cs1237/src/cs1237.c **** void drdy_output(){
  59              		.loc 1 19 19
  60              		.cfi_startproc
  20:lib/cs1237/src/cs1237.c **** 	cs1237_set_drdy_as_output();
  61              		.loc 1 20 2
  62 0000 17030000 		tail	cs1237_set_drdy_as_output
  62      67000300 
  63              	.LVL4:
  64              		.cfi_endproc
  65              	.LFE3:
  67              		.section	.text.set_drdy,"ax",@progbits
  68              		.align	1
  69              		.globl	set_drdy
  71              	set_drdy:
  72              	.LFB4:
  21:lib/cs1237/src/cs1237.c **** }
  22:lib/cs1237/src/cs1237.c **** 
  23:lib/cs1237/src/cs1237.c **** void set_drdy(uint8_t value){
  73              		.loc 1 23 29
  74              		.cfi_startproc
  75              	.LVL5:
  24:lib/cs1237/src/cs1237.c **** 	cs1237_set_drdy_pin(value);
  76              		.loc 1 24 2
  77 0000 17030000 		tail	cs1237_set_drdy_pin
  77      67000300 
  78              	.LVL6:
  79              		.cfi_endproc
  80              	.LFE4:
  82              		.section	.text.get_drdy,"ax",@progbits
  83              		.align	1
  84              		.globl	get_drdy
  86              	get_drdy:
  87              	.LFB5:
  25:lib/cs1237/src/cs1237.c **** }
  26:lib/cs1237/src/cs1237.c **** 
  27:lib/cs1237/src/cs1237.c **** uint8_t get_drdy(){
  88              		.loc 1 27 19
  89              		.cfi_startproc
  28:lib/cs1237/src/cs1237.c **** 	return cs1237_get_drdy_value();
  90              		.loc 1 28 2
  91              		.loc 1 28 9 is_stmt 0
  92 0000 17030000 		tail	cs1237_get_drdy_value
GAS LISTING /var/folders/_0/fbrtbm_x4pbf1b72ynjm3v580000gn/T//ccIuB4VY.s 			page 3


  92      67000300 
  93              	.LVL7:
  94              		.cfi_endproc
  95              	.LFE5:
  97              		.section	.text.cs1237_read,"ax",@progbits
  98              		.align	1
  99              		.globl	cs1237_read
 101              	cs1237_read:
 102              	.LFB6:
  29:lib/cs1237/src/cs1237.c **** }
  30:lib/cs1237/src/cs1237.c **** 
  31:lib/cs1237/src/cs1237.c **** //Public functions
  32:lib/cs1237/src/cs1237.c **** 
  33:lib/cs1237/src/cs1237.c **** int32_t cs1237_read(){
 103              		.loc 1 33 22 is_stmt 1
 104              		.cfi_startproc
  34:lib/cs1237/src/cs1237.c **** 	uint32_t adc_value = 0;;
 105              		.loc 1 34 2
 106              	.LVL8:
 107              		.loc 1 34 25
  35:lib/cs1237/src/cs1237.c **** 	//Block until data is ready
  36:lib/cs1237/src/cs1237.c ****     clk(0);
 108              		.loc 1 36 5
 109              	.LBB131:
 110              	.LBB132:
   8:lib/cs1237/src/cs1237.c **** }
 111              		.loc 1 8 2
 112              	.LBE132:
 113              	.LBE131:
  33:lib/cs1237/src/cs1237.c **** 	uint32_t adc_value = 0;;
 114              		.loc 1 33 22 is_stmt 0
 115 0000 4111     		addi	sp,sp,-16
 116              	.LCFI0:
 117              		.cfi_def_cfa_offset 16
 118              	.LBB135:
 119              	.LBB133:
   8:lib/cs1237/src/cs1237.c **** }
 120              		.loc 1 8 2
 121 0002 0145     		li	a0,0
 122              	.LBE133:
 123              	.LBE135:
  33:lib/cs1237/src/cs1237.c **** 	uint32_t adc_value = 0;;
 124              		.loc 1 33 22
 125 0004 06C6     		sw	ra,12(sp)
 126 0006 22C4     		sw	s0,8(sp)
 127 0008 26C2     		sw	s1,4(sp)
 128              		.cfi_offset 1, -4
 129              		.cfi_offset 8, -8
 130              		.cfi_offset 9, -12
 131              	.LBB136:
 132              	.LBB134:
   8:lib/cs1237/src/cs1237.c **** }
 133              		.loc 1 8 2
 134 000a 97000000 		call	cs1237_port_set_clock_pin
 134      E7800000 
 135              	.LVL9:
 136              	.L8:
GAS LISTING /var/folders/_0/fbrtbm_x4pbf1b72ynjm3v580000gn/T//ccIuB4VY.s 			page 4


 137              	.LBE134:
 138              	.LBE136:
  37:lib/cs1237/src/cs1237.c **** 	while(get_drdy());
 139              		.loc 1 37 19 is_stmt 1 discriminator 1
 140              	.LBB137:
 141              	.LBB138:
  28:lib/cs1237/src/cs1237.c **** }
 142              		.loc 1 28 2 discriminator 1
  28:lib/cs1237/src/cs1237.c **** }
 143              		.loc 1 28 9 is_stmt 0 discriminator 1
 144 0012 97000000 		call	cs1237_get_drdy_value
 144      E7800000 
 145              	.LVL10:
 146              	.LBE138:
 147              	.LBE137:
 148              		.loc 1 37 7 discriminator 1
 149 001a 65FD     		bne	a0,zero,.L8
 150 001c ED44     		li	s1,27
  34:lib/cs1237/src/cs1237.c **** 	//Block until data is ready
 151              		.loc 1 34 11
 152 001e 0144     		li	s0,0
 153              	.LVL11:
 154              	.L9:
 155              	.LBB139:
  38:lib/cs1237/src/cs1237.c **** 
  39:lib/cs1237/src/cs1237.c **** 	//Send 27 clocks and read drdy
  40:lib/cs1237/src/cs1237.c **** 	for(int i=0; i < 27; i++){
  41:lib/cs1237/src/cs1237.c **** 		clk(1);
 156              		.loc 1 41 3 is_stmt 1
 157              	.LBB140:
 158              	.LBB141:
   8:lib/cs1237/src/cs1237.c **** }
 159              		.loc 1 8 2
 160 0020 0545     		li	a0,1
 161 0022 97000000 		call	cs1237_port_set_clock_pin
 161      E7800000 
 162              	.LVL12:
 163              	.LBE141:
 164              	.LBE140:
  42:lib/cs1237/src/cs1237.c **** 		wait();
 165              		.loc 1 42 3
 166              	.LBB142:
 167              	.LBB143:
  12:lib/cs1237/src/cs1237.c **** }
 168              		.loc 1 12 2
 169 002a 97000000 		call	cs1237_port_wait_min_455ns
 169      E7800000 
 170              	.LVL13:
 171              	.LBE143:
 172              	.LBE142:
  43:lib/cs1237/src/cs1237.c **** 		adc_value = (adc_value << 1) | get_drdy();
 173              		.loc 1 43 3
 174              	.LBB144:
 175              	.LBB145:
  28:lib/cs1237/src/cs1237.c **** }
 176              		.loc 1 28 9 is_stmt 0
 177 0032 97000000 		call	cs1237_get_drdy_value
GAS LISTING /var/folders/_0/fbrtbm_x4pbf1b72ynjm3v580000gn/T//ccIuB4VY.s 			page 5


 177      E7800000 
 178              	.LVL14:
 179              	.LBE145:
 180              	.LBE144:
 181              		.loc 1 43 26
 182 003a 0604     		slli	s0,s0,1
 183              	.LVL15:
 184              	.LBB147:
 185              	.LBB146:
  28:lib/cs1237/src/cs1237.c **** }
 186              		.loc 1 28 2 is_stmt 1
 187              	.LBE146:
 188              	.LBE147:
 189              		.loc 1 43 13 is_stmt 0
 190 003c 498C     		or	s0,a0,s0
 191              	.LVL16:
  44:lib/cs1237/src/cs1237.c **** 		clk(0);
 192              		.loc 1 44 3 is_stmt 1
 193              	.LBB148:
 194              	.LBB149:
   8:lib/cs1237/src/cs1237.c **** }
 195              		.loc 1 8 2
 196 003e FD14     		addi	s1,s1,-1
 197              	.LVL17:
 198 0040 0145     		li	a0,0
 199 0042 97000000 		call	cs1237_port_set_clock_pin
 199      E7800000 
 200              	.LVL18:
 201              	.LBE149:
 202              	.LBE148:
  45:lib/cs1237/src/cs1237.c **** 		wait();
 203              		.loc 1 45 3
 204              	.LBB150:
 205              	.LBB151:
  12:lib/cs1237/src/cs1237.c **** }
 206              		.loc 1 12 2
 207 004a 97000000 		call	cs1237_port_wait_min_455ns
 207      E7800000 
 208              	.LVL19:
 209              	.LBE151:
 210              	.LBE150:
  40:lib/cs1237/src/cs1237.c **** 		clk(1);
 211              		.loc 1 40 2 is_stmt 0
 212 0052 F9F4     		bne	s1,zero,.L9
 213              	.LBE139:
  46:lib/cs1237/src/cs1237.c **** 	}
  47:lib/cs1237/src/cs1237.c **** 
  48:lib/cs1237/src/cs1237.c **** 	//Discard last 3 bits
  49:lib/cs1237/src/cs1237.c **** 	adc_value = adc_value >> 3;
 214              		.loc 1 49 2 is_stmt 1
 215              		.loc 1 49 12 is_stmt 0
 216 0054 13553400 		srli	a0,s0,3
 217              	.LVL20:
  50:lib/cs1237/src/cs1237.c **** 
  51:lib/cs1237/src/cs1237.c **** 	//Convert from 24bit 2s complement to 32bit 2s complement
  52:lib/cs1237/src/cs1237.c **** 	if(adc_value & (1 << 23)){
 218              		.loc 1 52 2 is_stmt 1
GAS LISTING /var/folders/_0/fbrtbm_x4pbf1b72ynjm3v580000gn/T//ccIuB4VY.s 			page 6


 219              		.loc 1 52 4 is_stmt 0
 220 0058 13178500 		slli	a4,a0,8
 221              		.loc 1 52 15
 222 005c B7078000 		li	a5,8388608
 223              		.loc 1 52 4
 224 0060 63540700 		bge	a4,zero,.L7
  53:lib/cs1237/src/cs1237.c **** 		//Sign extend
  54:lib/cs1237/src/cs1237.c **** 		return (adc_value ^ (1 << 23)) - (1 << 23);
 225              		.loc 1 54 3 is_stmt 1
 226              		.loc 1 54 21 is_stmt 0
 227 0064 3D8D     		xor	a0,a0,a5
 228              	.LVL21:
 229              		.loc 1 54 34
 230 0066 1D8D     		sub	a0,a0,a5
 231              	.LVL22:
 232              	.L7:
  55:lib/cs1237/src/cs1237.c **** 	}
  56:lib/cs1237/src/cs1237.c ****     return adc_value;
  57:lib/cs1237/src/cs1237.c **** }
 233              		.loc 1 57 1
 234 0068 B240     		lw	ra,12(sp)
 235              		.cfi_restore 1
 236 006a 2244     		lw	s0,8(sp)
 237              		.cfi_restore 8
 238              	.LVL23:
 239 006c 9244     		lw	s1,4(sp)
 240              		.cfi_restore 9
 241 006e 4101     		addi	sp,sp,16
 242              	.LCFI1:
 243              		.cfi_def_cfa_offset 0
 244 0070 8280     		jr	ra
 245              		.cfi_endproc
 246              	.LFE6:
 248              		.section	.text.cs1237_data_ready,"ax",@progbits
 249              		.align	1
 250              		.globl	cs1237_data_ready
 252              	cs1237_data_ready:
 253              	.LFB7:
  58:lib/cs1237/src/cs1237.c **** 
  59:lib/cs1237/src/cs1237.c **** uint8_t cs1237_data_ready(){
 254              		.loc 1 59 28 is_stmt 1
 255              		.cfi_startproc
  60:lib/cs1237/src/cs1237.c **** 	return !get_drdy();
 256              		.loc 1 60 2
 257              	.LBB152:
 258              	.LBB153:
  28:lib/cs1237/src/cs1237.c **** }
 259              		.loc 1 28 2
 260              	.LBE153:
 261              	.LBE152:
  59:lib/cs1237/src/cs1237.c **** 	return !get_drdy();
 262              		.loc 1 59 28 is_stmt 0
 263 0000 4111     		addi	sp,sp,-16
 264              	.LCFI2:
 265              		.cfi_def_cfa_offset 16
 266 0002 06C6     		sw	ra,12(sp)
 267              		.cfi_offset 1, -4
GAS LISTING /var/folders/_0/fbrtbm_x4pbf1b72ynjm3v580000gn/T//ccIuB4VY.s 			page 7


 268              	.LBB155:
 269              	.LBB154:
  28:lib/cs1237/src/cs1237.c **** }
 270              		.loc 1 28 9
 271 0004 97000000 		call	cs1237_get_drdy_value
 271      E7800000 
 272              	.LVL24:
 273              	.LBE154:
 274              	.LBE155:
  61:lib/cs1237/src/cs1237.c **** }
 275              		.loc 1 61 1
 276 000c B240     		lw	ra,12(sp)
 277              		.cfi_restore 1
 278 000e 13351500 		seqz	a0,a0
 279 0012 4101     		addi	sp,sp,16
 280              	.LCFI3:
 281              		.cfi_def_cfa_offset 0
 282 0014 8280     		jr	ra
 283              		.cfi_endproc
 284              	.LFE7:
 286              		.section	.text.cs1237_configure,"ax",@progbits
 287              		.align	1
 288              		.globl	cs1237_configure
 290              	cs1237_configure:
 291              	.LFB8:
  62:lib/cs1237/src/cs1237.c **** 
  63:lib/cs1237/src/cs1237.c **** void cs1237_configure(uint8_t config){
 292              		.loc 1 63 38 is_stmt 1
 293              		.cfi_startproc
 294              	.LVL25:
  64:lib/cs1237/src/cs1237.c **** 	const uint8_t write_reg = 0x65;
 295              		.loc 1 64 2
  65:lib/cs1237/src/cs1237.c **** 	
  66:lib/cs1237/src/cs1237.c **** 	//Do a read, discard result
  67:lib/cs1237/src/cs1237.c **** 	cs1237_read();
 296              		.loc 1 67 2
  63:lib/cs1237/src/cs1237.c **** 	const uint8_t write_reg = 0x65;
 297              		.loc 1 63 38 is_stmt 0
 298 0000 0111     		addi	sp,sp,-32
 299              	.LCFI4:
 300              		.cfi_def_cfa_offset 32
 301 0002 06CE     		sw	ra,28(sp)
 302 0004 22CC     		sw	s0,24(sp)
 303 0006 26CA     		sw	s1,20(sp)
 304 0008 4AC8     		sw	s2,16(sp)
 305 000a 4EC6     		sw	s3,12(sp)
 306              		.cfi_offset 1, -4
 307              		.cfi_offset 8, -8
 308              		.cfi_offset 9, -12
 309              		.cfi_offset 18, -16
 310              		.cfi_offset 19, -20
  63:lib/cs1237/src/cs1237.c **** 	const uint8_t write_reg = 0x65;
 311              		.loc 1 63 38
 312 000c AA84     		mv	s1,a0
 313              		.loc 1 67 2
 314 000e 97000000 		call	cs1237_read
 314      E7800000 
GAS LISTING /var/folders/_0/fbrtbm_x4pbf1b72ynjm3v580000gn/T//ccIuB4VY.s 			page 8


 315              	.LVL26:
  68:lib/cs1237/src/cs1237.c **** 	
  69:lib/cs1237/src/cs1237.c **** 	//Clk 28, change drdy to output
  70:lib/cs1237/src/cs1237.c **** 	clk(1);
 316              		.loc 1 70 2 is_stmt 1
 317              	.LBB156:
 318              	.LBB157:
   8:lib/cs1237/src/cs1237.c **** }
 319              		.loc 1 8 2
 320 0016 0545     		li	a0,1
 321 0018 97000000 		call	cs1237_port_set_clock_pin
 321      E7800000 
 322              	.LVL27:
 323              	.LBE157:
 324              	.LBE156:
  71:lib/cs1237/src/cs1237.c **** 	drdy_output();
 325              		.loc 1 71 2
 326              	.LBB158:
 327              	.LBB159:
  20:lib/cs1237/src/cs1237.c **** }
 328              		.loc 1 20 2
 329 0020 97000000 		call	cs1237_set_drdy_as_output
 329      E7800000 
 330              	.LVL28:
 331              	.LBE159:
 332              	.LBE158:
  72:lib/cs1237/src/cs1237.c **** 	set_drdy((write_reg >> 6) & 1);
 333              		.loc 1 72 2
 334              	.LBB160:
 335              	.LBB161:
  24:lib/cs1237/src/cs1237.c **** }
 336              		.loc 1 24 2
 337 0028 0545     		li	a0,1
 338 002a 97000000 		call	cs1237_set_drdy_pin
 338      E7800000 
 339              	.LVL29:
 340              	.LBE161:
 341              	.LBE160:
  73:lib/cs1237/src/cs1237.c **** 	wait();
 342              		.loc 1 73 2
 343              	.LBB162:
 344              	.LBB163:
  12:lib/cs1237/src/cs1237.c **** }
 345              		.loc 1 12 2
 346 0032 97000000 		call	cs1237_port_wait_min_455ns
 346      E7800000 
 347              	.LVL30:
 348              	.LBE163:
 349              	.LBE162:
  74:lib/cs1237/src/cs1237.c **** 	clk(0);
 350              		.loc 1 74 2
 351              	.LBB164:
 352              	.LBB165:
   8:lib/cs1237/src/cs1237.c **** }
 353              		.loc 1 8 2
 354 003a 0145     		li	a0,0
 355 003c 97000000 		call	cs1237_port_set_clock_pin
GAS LISTING /var/folders/_0/fbrtbm_x4pbf1b72ynjm3v580000gn/T//ccIuB4VY.s 			page 9


 355      E7800000 
 356              	.LVL31:
 357              	.LBE165:
 358              	.LBE164:
  75:lib/cs1237/src/cs1237.c **** 	wait();
 359              		.loc 1 75 2
 360              	.LBB166:
 361              	.LBB167:
  12:lib/cs1237/src/cs1237.c **** }
 362              		.loc 1 12 2
 363 0044 97000000 		call	cs1237_port_wait_min_455ns
 363      E7800000 
 364              	.LVL32:
 365              	.LBE167:
 366              	.LBE166:
  76:lib/cs1237/src/cs1237.c **** 
  77:lib/cs1237/src/cs1237.c **** 	//Clk 29
  78:lib/cs1237/src/cs1237.c **** 	clk(1);
 367              		.loc 1 78 2
 368              	.LBB168:
 369              	.LBB169:
   8:lib/cs1237/src/cs1237.c **** }
 370              		.loc 1 8 2
 371 004c 0545     		li	a0,1
 372 004e 97000000 		call	cs1237_port_set_clock_pin
 372      E7800000 
 373              	.LVL33:
 374              	.LBE169:
 375              	.LBE168:
  79:lib/cs1237/src/cs1237.c **** 	wait();
 376              		.loc 1 79 2
 377              	.LBB170:
 378              	.LBB171:
  12:lib/cs1237/src/cs1237.c **** }
 379              		.loc 1 12 2
 380 0056 97000000 		call	cs1237_port_wait_min_455ns
 380      E7800000 
 381              	.LVL34:
 382              	.LBE171:
 383              	.LBE170:
  80:lib/cs1237/src/cs1237.c **** 	clk(0);
 384              		.loc 1 80 2
 385              	.LBB172:
 386              	.LBB173:
   8:lib/cs1237/src/cs1237.c **** }
 387              		.loc 1 8 2
 388 005e 0145     		li	a0,0
 389 0060 97000000 		call	cs1237_port_set_clock_pin
 389      E7800000 
 390              	.LVL35:
 391              	.LBE173:
 392              	.LBE172:
  81:lib/cs1237/src/cs1237.c **** 	wait();
 393              		.loc 1 81 2
 394              	.LBB174:
 395              	.LBB175:
  12:lib/cs1237/src/cs1237.c **** }
GAS LISTING /var/folders/_0/fbrtbm_x4pbf1b72ynjm3v580000gn/T//ccIuB4VY.s 			page 10


 396              		.loc 1 12 2
 397 0068 1944     		li	s0,6
 398 006a 97000000 		call	cs1237_port_wait_min_455ns
 398      E7800000 
 399              	.LVL36:
 400              	.LBE175:
 401              	.LBE174:
  82:lib/cs1237/src/cs1237.c **** 
  83:lib/cs1237/src/cs1237.c **** 	//Clk 30-36, specify write register
  84:lib/cs1237/src/cs1237.c **** 	for(int i = 0; i < 7; i++){
 402              		.loc 1 84 2
 403              	.LBB176:
 404              		.loc 1 84 6
  85:lib/cs1237/src/cs1237.c **** 		clk(1);
  86:lib/cs1237/src/cs1237.c **** 		set_drdy((write_reg >> (6 - i)) & 1);
 405              		.loc 1 86 23 is_stmt 0
 406 0072 93095006 		li	s3,101
  84:lib/cs1237/src/cs1237.c **** 		clk(1);
 407              		.loc 1 84 2
 408 0076 7D59     		li	s2,-1
 409              	.LVL37:
 410              	.L19:
  85:lib/cs1237/src/cs1237.c **** 		clk(1);
 411              		.loc 1 85 3 is_stmt 1
 412              	.LBB177:
 413              	.LBB178:
   8:lib/cs1237/src/cs1237.c **** }
 414              		.loc 1 8 2
 415 0078 0545     		li	a0,1
 416 007a 97000000 		call	cs1237_port_set_clock_pin
 416      E7800000 
 417              	.LVL38:
 418              	.LBE178:
 419              	.LBE177:
 420              		.loc 1 86 3
 421              	.LBB179:
 422              	.LBB180:
  24:lib/cs1237/src/cs1237.c **** }
 423              		.loc 1 24 2
 424              	.LBE180:
 425              	.LBE179:
 426              		.loc 1 86 23 is_stmt 0
 427 0082 33D58940 		sra	a0,s3,s0
 428              	.LBB182:
 429              	.LBB181:
  24:lib/cs1237/src/cs1237.c **** }
 430              		.loc 1 24 2
 431 0086 0589     		andi	a0,a0,1
 432 0088 97000000 		call	cs1237_set_drdy_pin
 432      E7800000 
 433              	.LVL39:
 434              	.LBE181:
 435              	.LBE182:
  87:lib/cs1237/src/cs1237.c **** 		wait();
 436              		.loc 1 87 3 is_stmt 1
 437              	.LBB183:
 438              	.LBB184:
GAS LISTING /var/folders/_0/fbrtbm_x4pbf1b72ynjm3v580000gn/T//ccIuB4VY.s 			page 11


  12:lib/cs1237/src/cs1237.c **** }
 439              		.loc 1 12 2
 440 0090 97000000 		call	cs1237_port_wait_min_455ns
 440      E7800000 
 441              	.LVL40:
 442              	.LBE184:
 443              	.LBE183:
  88:lib/cs1237/src/cs1237.c **** 		clk(0);
 444              		.loc 1 88 3
 445              	.LBB185:
 446              	.LBB186:
   8:lib/cs1237/src/cs1237.c **** }
 447              		.loc 1 8 2
 448 0098 0145     		li	a0,0
 449 009a 7D14     		addi	s0,s0,-1
 450              	.LVL41:
 451 009c 97000000 		call	cs1237_port_set_clock_pin
 451      E7800000 
 452              	.LVL42:
 453              	.LBE186:
 454              	.LBE185:
  89:lib/cs1237/src/cs1237.c **** 		wait();
 455              		.loc 1 89 3
 456              	.LBB187:
 457              	.LBB188:
  12:lib/cs1237/src/cs1237.c **** }
 458              		.loc 1 12 2
 459 00a4 97000000 		call	cs1237_port_wait_min_455ns
 459      E7800000 
 460              	.LVL43:
 461              	.LBE188:
 462              	.LBE187:
  84:lib/cs1237/src/cs1237.c **** 		clk(1);
 463              		.loc 1 84 2 is_stmt 0
 464 00ac E31624FD 		bne	s0,s2,.L19
 465              	.LBE176:
  90:lib/cs1237/src/cs1237.c **** 	}
  91:lib/cs1237/src/cs1237.c ****     //CLK 37
  92:lib/cs1237/src/cs1237.c ****     clk(1);
 466              		.loc 1 92 5 is_stmt 1
 467              	.LVL44:
 468              	.LBB189:
 469              	.LBB190:
   8:lib/cs1237/src/cs1237.c **** }
 470              		.loc 1 8 2
 471 00b0 0545     		li	a0,1
 472 00b2 97000000 		call	cs1237_port_set_clock_pin
 472      E7800000 
 473              	.LVL45:
 474              	.LBE190:
 475              	.LBE189:
  93:lib/cs1237/src/cs1237.c **** 	wait();
 476              		.loc 1 93 2
 477              	.LBB191:
 478              	.LBB192:
  12:lib/cs1237/src/cs1237.c **** }
 479              		.loc 1 12 2
GAS LISTING /var/folders/_0/fbrtbm_x4pbf1b72ynjm3v580000gn/T//ccIuB4VY.s 			page 12


 480 00ba 97000000 		call	cs1237_port_wait_min_455ns
 480      E7800000 
 481              	.LVL46:
 482              	.LBE192:
 483              	.LBE191:
  94:lib/cs1237/src/cs1237.c **** 	clk(0);
 484              		.loc 1 94 2
 485              	.LBB193:
 486              	.LBB194:
   8:lib/cs1237/src/cs1237.c **** }
 487              		.loc 1 8 2
 488 00c2 0145     		li	a0,0
 489 00c4 97000000 		call	cs1237_port_set_clock_pin
 489      E7800000 
 490              	.LVL47:
 491              	.LBE194:
 492              	.LBE193:
  95:lib/cs1237/src/cs1237.c **** 	wait();
 493              		.loc 1 95 2
 494              	.LBB195:
 495              	.LBB196:
  12:lib/cs1237/src/cs1237.c **** }
 496              		.loc 1 12 2
 497 00cc 1D44     		li	s0,7
 498 00ce 97000000 		call	cs1237_port_wait_min_455ns
 498      E7800000 
 499              	.LVL48:
 500              	.LBE196:
 501              	.LBE195:
  96:lib/cs1237/src/cs1237.c **** 	//Clk 38-45, write configuration
  97:lib/cs1237/src/cs1237.c **** 	for(int i = 0; i < 8; i++){
 502              		.loc 1 97 2
 503              	.LBB197:
 504              		.loc 1 97 6
 505              		.loc 1 97 2 is_stmt 0
 506 00d6 7D59     		li	s2,-1
 507              	.LVL49:
 508              	.L20:
  98:lib/cs1237/src/cs1237.c **** 		clk(1);
 509              		.loc 1 98 3 is_stmt 1
 510              	.LBB198:
 511              	.LBB199:
   8:lib/cs1237/src/cs1237.c **** }
 512              		.loc 1 8 2
 513 00d8 0545     		li	a0,1
 514 00da 97000000 		call	cs1237_port_set_clock_pin
 514      E7800000 
 515              	.LVL50:
 516              	.LBE199:
 517              	.LBE198:
  99:lib/cs1237/src/cs1237.c **** 		set_drdy((config >> (7 - i)) & 1);
 518              		.loc 1 99 3
 519              	.LBB200:
 520              	.LBB201:
  24:lib/cs1237/src/cs1237.c **** }
 521              		.loc 1 24 2
 522              	.LBE201:
GAS LISTING /var/folders/_0/fbrtbm_x4pbf1b72ynjm3v580000gn/T//ccIuB4VY.s 			page 13


 523              	.LBE200:
 524              		.loc 1 99 20 is_stmt 0
 525 00e2 33D58440 		sra	a0,s1,s0
 526              	.LBB203:
 527              	.LBB202:
  24:lib/cs1237/src/cs1237.c **** }
 528              		.loc 1 24 2
 529 00e6 0589     		andi	a0,a0,1
 530 00e8 97000000 		call	cs1237_set_drdy_pin
 530      E7800000 
 531              	.LVL51:
 532              	.LBE202:
 533              	.LBE203:
 100:lib/cs1237/src/cs1237.c **** 		wait();
 534              		.loc 1 100 3 is_stmt 1
 535              	.LBB204:
 536              	.LBB205:
  12:lib/cs1237/src/cs1237.c **** }
 537              		.loc 1 12 2
 538 00f0 97000000 		call	cs1237_port_wait_min_455ns
 538      E7800000 
 539              	.LVL52:
 540              	.LBE205:
 541              	.LBE204:
 101:lib/cs1237/src/cs1237.c **** 		clk(0);
 542              		.loc 1 101 3
 543              	.LBB206:
 544              	.LBB207:
   8:lib/cs1237/src/cs1237.c **** }
 545              		.loc 1 8 2
 546 00f8 0145     		li	a0,0
 547 00fa 7D14     		addi	s0,s0,-1
 548              	.LVL53:
 549 00fc 97000000 		call	cs1237_port_set_clock_pin
 549      E7800000 
 550              	.LVL54:
 551              	.LBE207:
 552              	.LBE206:
 102:lib/cs1237/src/cs1237.c **** 		wait();
 553              		.loc 1 102 3
 554              	.LBB208:
 555              	.LBB209:
  12:lib/cs1237/src/cs1237.c **** }
 556              		.loc 1 12 2
 557 0104 97000000 		call	cs1237_port_wait_min_455ns
 557      E7800000 
 558              	.LVL55:
 559              	.LBE209:
 560              	.LBE208:
  97:lib/cs1237/src/cs1237.c **** 		clk(1);
 561              		.loc 1 97 2 is_stmt 0
 562 010c E31624FD 		bne	s0,s2,.L20
 563              	.LBE197:
 103:lib/cs1237/src/cs1237.c **** 	}
 104:lib/cs1237/src/cs1237.c **** 	drdy_input();
 564              		.loc 1 104 2 is_stmt 1
 565              	.LBB210:
GAS LISTING /var/folders/_0/fbrtbm_x4pbf1b72ynjm3v580000gn/T//ccIuB4VY.s 			page 14


 566              	.LBB211:
  16:lib/cs1237/src/cs1237.c **** }
 567              		.loc 1 16 2
 568 0110 97000000 		call	cs1237_set_drdy_as_input
 568      E7800000 
 569              	.LVL56:
 570              	.LBE211:
 571              	.LBE210:
 105:lib/cs1237/src/cs1237.c **** 	//Clk 46
 106:lib/cs1237/src/cs1237.c **** 	clk(1);
 572              		.loc 1 106 2
 573              	.LBB212:
 574              	.LBB213:
   8:lib/cs1237/src/cs1237.c **** }
 575              		.loc 1 8 2
 576 0118 0545     		li	a0,1
 577 011a 97000000 		call	cs1237_port_set_clock_pin
 577      E7800000 
 578              	.LVL57:
 579              	.LBE213:
 580              	.LBE212:
 107:lib/cs1237/src/cs1237.c **** 	wait();
 581              		.loc 1 107 2
 582              	.LBB214:
 583              	.LBB215:
  12:lib/cs1237/src/cs1237.c **** }
 584              		.loc 1 12 2
 585 0122 97000000 		call	cs1237_port_wait_min_455ns
 585      E7800000 
 586              	.LVL58:
 587              	.LBE215:
 588              	.LBE214:
 108:lib/cs1237/src/cs1237.c **** 	clk(0);
 589              		.loc 1 108 2
 590              	.LBB216:
 591              	.LBB217:
   8:lib/cs1237/src/cs1237.c **** }
 592              		.loc 1 8 2
 593 012a 0145     		li	a0,0
 594 012c 97000000 		call	cs1237_port_set_clock_pin
 594      E7800000 
 595              	.LVL59:
 596              	.LBE217:
 597              	.LBE216:
 109:lib/cs1237/src/cs1237.c **** 	wait();
 598              		.loc 1 109 2
 599              	.LBB218:
 600              	.LBB219:
  12:lib/cs1237/src/cs1237.c **** }
 601              		.loc 1 12 2
 602 0134 97000000 		call	cs1237_port_wait_min_455ns
 602      E7800000 
 603              	.LVL60:
 604              	.LBE219:
 605              	.LBE218:
 110:lib/cs1237/src/cs1237.c **** 
 111:lib/cs1237/src/cs1237.c ****     current_config = config;
GAS LISTING /var/folders/_0/fbrtbm_x4pbf1b72ynjm3v580000gn/T//ccIuB4VY.s 			page 15


 606              		.loc 1 111 5
 112:lib/cs1237/src/cs1237.c **** 
 113:lib/cs1237/src/cs1237.c **** }
 607              		.loc 1 113 1 is_stmt 0
 608 013c F240     		lw	ra,28(sp)
 609              		.cfi_restore 1
 610 013e 6244     		lw	s0,24(sp)
 611              		.cfi_restore 8
 111:lib/cs1237/src/cs1237.c **** 
 612              		.loc 1 111 20
 613 0140 B7070000 		lui	a5,%hi(.LANCHOR0)
 614 0144 23809700 		sb	s1,%lo(.LANCHOR0)(a5)
 615              		.loc 1 113 1
 616 0148 4249     		lw	s2,16(sp)
 617              		.cfi_restore 18
 618 014a D244     		lw	s1,20(sp)
 619              		.cfi_restore 9
 620 014c B249     		lw	s3,12(sp)
 621              		.cfi_restore 19
 622 014e 0561     		addi	sp,sp,32
 623              	.LCFI5:
 624              		.cfi_def_cfa_offset 0
 625 0150 8280     		jr	ra
 626              		.cfi_endproc
 627              	.LFE8:
 629              		.section	.text.cs1237_get_configuration,"ax",@progbits
 630              		.align	1
 631              		.globl	cs1237_get_configuration
 633              	cs1237_get_configuration:
 634              	.LFB9:
 114:lib/cs1237/src/cs1237.c **** 
 115:lib/cs1237/src/cs1237.c **** 
 116:lib/cs1237/src/cs1237.c **** 
 117:lib/cs1237/src/cs1237.c **** uint8_t cs1237_get_configuration(){
 635              		.loc 1 117 35 is_stmt 1
 636              		.cfi_startproc
 118:lib/cs1237/src/cs1237.c **** 	const uint8_t read_reg = 0x56;
 637              		.loc 1 118 2
 638              	.LVL61:
 119:lib/cs1237/src/cs1237.c **** 	uint8_t config = 0;
 639              		.loc 1 119 2
 120:lib/cs1237/src/cs1237.c **** 	//Do a read, discard result
 121:lib/cs1237/src/cs1237.c **** 	cs1237_read();
 640              		.loc 1 121 2
 117:lib/cs1237/src/cs1237.c **** 	const uint8_t read_reg = 0x56;
 641              		.loc 1 117 35 is_stmt 0
 642 0000 4111     		addi	sp,sp,-16
 643              	.LCFI6:
 644              		.cfi_def_cfa_offset 16
 645 0002 06C6     		sw	ra,12(sp)
 646 0004 22C4     		sw	s0,8(sp)
 647 0006 26C2     		sw	s1,4(sp)
 648 0008 4AC0     		sw	s2,0(sp)
 649              		.cfi_offset 1, -4
 650              		.cfi_offset 8, -8
 651              		.cfi_offset 9, -12
 652              		.cfi_offset 18, -16
GAS LISTING /var/folders/_0/fbrtbm_x4pbf1b72ynjm3v580000gn/T//ccIuB4VY.s 			page 16


 653              		.loc 1 121 2
 654 000a 97000000 		call	cs1237_read
 654      E7800000 
 655              	.LVL62:
 122:lib/cs1237/src/cs1237.c **** 	
 123:lib/cs1237/src/cs1237.c **** 	//Clk 28, change drdy to output
 124:lib/cs1237/src/cs1237.c **** 	clk(1);
 656              		.loc 1 124 2 is_stmt 1
 657              	.LBB220:
 658              	.LBB221:
   8:lib/cs1237/src/cs1237.c **** }
 659              		.loc 1 8 2
 660 0012 0545     		li	a0,1
 661 0014 97000000 		call	cs1237_port_set_clock_pin
 661      E7800000 
 662              	.LVL63:
 663              	.LBE221:
 664              	.LBE220:
 125:lib/cs1237/src/cs1237.c **** 	drdy_output();
 665              		.loc 1 125 2
 666              	.LBB222:
 667              	.LBB223:
  20:lib/cs1237/src/cs1237.c **** }
 668              		.loc 1 20 2
 669 001c 97000000 		call	cs1237_set_drdy_as_output
 669      E7800000 
 670              	.LVL64:
 671              	.LBE223:
 672              	.LBE222:
 126:lib/cs1237/src/cs1237.c **** 	set_drdy((read_reg >> 6) & 1);
 673              		.loc 1 126 2
 674              	.LBB224:
 675              	.LBB225:
  24:lib/cs1237/src/cs1237.c **** }
 676              		.loc 1 24 2
 677 0024 0545     		li	a0,1
 678 0026 97000000 		call	cs1237_set_drdy_pin
 678      E7800000 
 679              	.LVL65:
 680              	.LBE225:
 681              	.LBE224:
 127:lib/cs1237/src/cs1237.c **** 	wait();
 682              		.loc 1 127 2
 683              	.LBB226:
 684              	.LBB227:
  12:lib/cs1237/src/cs1237.c **** }
 685              		.loc 1 12 2
 686 002e 97000000 		call	cs1237_port_wait_min_455ns
 686      E7800000 
 687              	.LVL66:
 688              	.LBE227:
 689              	.LBE226:
 128:lib/cs1237/src/cs1237.c **** 	clk(0);
 690              		.loc 1 128 2
 691              	.LBB228:
 692              	.LBB229:
   8:lib/cs1237/src/cs1237.c **** }
GAS LISTING /var/folders/_0/fbrtbm_x4pbf1b72ynjm3v580000gn/T//ccIuB4VY.s 			page 17


 693              		.loc 1 8 2
 694 0036 0145     		li	a0,0
 695 0038 97000000 		call	cs1237_port_set_clock_pin
 695      E7800000 
 696              	.LVL67:
 697              	.LBE229:
 698              	.LBE228:
 129:lib/cs1237/src/cs1237.c **** 	wait();
 699              		.loc 1 129 2
 700              	.LBB230:
 701              	.LBB231:
  12:lib/cs1237/src/cs1237.c **** }
 702              		.loc 1 12 2
 703 0040 97000000 		call	cs1237_port_wait_min_455ns
 703      E7800000 
 704              	.LVL68:
 705              	.LBE231:
 706              	.LBE230:
 130:lib/cs1237/src/cs1237.c **** 
 131:lib/cs1237/src/cs1237.c **** 	//Clk 29
 132:lib/cs1237/src/cs1237.c **** 	clk(1);
 707              		.loc 1 132 2
 708              	.LBB232:
 709              	.LBB233:
   8:lib/cs1237/src/cs1237.c **** }
 710              		.loc 1 8 2
 711 0048 0545     		li	a0,1
 712 004a 97000000 		call	cs1237_port_set_clock_pin
 712      E7800000 
 713              	.LVL69:
 714              	.LBE233:
 715              	.LBE232:
 133:lib/cs1237/src/cs1237.c **** 	wait();
 716              		.loc 1 133 2
 717              	.LBB234:
 718              	.LBB235:
  12:lib/cs1237/src/cs1237.c **** }
 719              		.loc 1 12 2
 720 0052 97000000 		call	cs1237_port_wait_min_455ns
 720      E7800000 
 721              	.LVL70:
 722              	.LBE235:
 723              	.LBE234:
 134:lib/cs1237/src/cs1237.c **** 	clk(0);
 724              		.loc 1 134 2
 725              	.LBB236:
 726              	.LBB237:
   8:lib/cs1237/src/cs1237.c **** }
 727              		.loc 1 8 2
 728 005a 0145     		li	a0,0
 729 005c 97000000 		call	cs1237_port_set_clock_pin
 729      E7800000 
 730              	.LVL71:
 731              	.LBE237:
 732              	.LBE236:
 135:lib/cs1237/src/cs1237.c **** 	wait();
 733              		.loc 1 135 2
GAS LISTING /var/folders/_0/fbrtbm_x4pbf1b72ynjm3v580000gn/T//ccIuB4VY.s 			page 18


 734              	.LBB238:
 735              	.LBB239:
  12:lib/cs1237/src/cs1237.c **** }
 736              		.loc 1 12 2
 737 0064 1944     		li	s0,6
 738 0066 97000000 		call	cs1237_port_wait_min_455ns
 738      E7800000 
 739              	.LVL72:
 740              	.LBE239:
 741              	.LBE238:
 136:lib/cs1237/src/cs1237.c **** 
 137:lib/cs1237/src/cs1237.c **** 	//Clk 30-36, specify read register
 138:lib/cs1237/src/cs1237.c **** 	for(int i = 0; i < 7; i++){
 742              		.loc 1 138 2
 743              	.LBB240:
 744              		.loc 1 138 6
 139:lib/cs1237/src/cs1237.c **** 		clk(1);
 140:lib/cs1237/src/cs1237.c **** 		set_drdy((read_reg >> (6 - i)) & 1);
 745              		.loc 1 140 22 is_stmt 0
 746 006e 13096005 		li	s2,86
 138:lib/cs1237/src/cs1237.c **** 		clk(1);
 747              		.loc 1 138 2
 748 0072 FD54     		li	s1,-1
 749              	.LVL73:
 750              	.L25:
 139:lib/cs1237/src/cs1237.c **** 		clk(1);
 751              		.loc 1 139 3 is_stmt 1
 752              	.LBB241:
 753              	.LBB242:
   8:lib/cs1237/src/cs1237.c **** }
 754              		.loc 1 8 2
 755 0074 0545     		li	a0,1
 756 0076 97000000 		call	cs1237_port_set_clock_pin
 756      E7800000 
 757              	.LVL74:
 758              	.LBE242:
 759              	.LBE241:
 760              		.loc 1 140 3
 761              	.LBB243:
 762              	.LBB244:
  24:lib/cs1237/src/cs1237.c **** }
 763              		.loc 1 24 2
 764              	.LBE244:
 765              	.LBE243:
 766              		.loc 1 140 22 is_stmt 0
 767 007e 33558940 		sra	a0,s2,s0
 768              	.LBB246:
 769              	.LBB245:
  24:lib/cs1237/src/cs1237.c **** }
 770              		.loc 1 24 2
 771 0082 0589     		andi	a0,a0,1
 772 0084 97000000 		call	cs1237_set_drdy_pin
 772      E7800000 
 773              	.LVL75:
 774              	.LBE245:
 775              	.LBE246:
 141:lib/cs1237/src/cs1237.c **** 		wait();
GAS LISTING /var/folders/_0/fbrtbm_x4pbf1b72ynjm3v580000gn/T//ccIuB4VY.s 			page 19


 776              		.loc 1 141 3 is_stmt 1
 777              	.LBB247:
 778              	.LBB248:
  12:lib/cs1237/src/cs1237.c **** }
 779              		.loc 1 12 2
 780 008c 97000000 		call	cs1237_port_wait_min_455ns
 780      E7800000 
 781              	.LVL76:
 782              	.LBE248:
 783              	.LBE247:
 142:lib/cs1237/src/cs1237.c **** 		clk(0);
 784              		.loc 1 142 3
 785              	.LBB249:
 786              	.LBB250:
   8:lib/cs1237/src/cs1237.c **** }
 787              		.loc 1 8 2
 788 0094 0145     		li	a0,0
 789 0096 7D14     		addi	s0,s0,-1
 790              	.LVL77:
 791 0098 97000000 		call	cs1237_port_set_clock_pin
 791      E7800000 
 792              	.LVL78:
 793              	.LBE250:
 794              	.LBE249:
 143:lib/cs1237/src/cs1237.c **** 		wait();
 795              		.loc 1 143 3
 796              	.LBB251:
 797              	.LBB252:
  12:lib/cs1237/src/cs1237.c **** }
 798              		.loc 1 12 2
 799 00a0 97000000 		call	cs1237_port_wait_min_455ns
 799      E7800000 
 800              	.LVL79:
 801              	.LBE252:
 802              	.LBE251:
 138:lib/cs1237/src/cs1237.c **** 		clk(1);
 803              		.loc 1 138 2 is_stmt 0
 804 00a8 E31694FC 		bne	s0,s1,.L25
 805              	.LBE240:
 144:lib/cs1237/src/cs1237.c **** 	}
 145:lib/cs1237/src/cs1237.c **** 	drdy_input();
 806              		.loc 1 145 2 is_stmt 1
 807              	.LBB253:
 808              	.LBB254:
  16:lib/cs1237/src/cs1237.c **** }
 809              		.loc 1 16 2
 810 00ac 97000000 		call	cs1237_set_drdy_as_input
 810      E7800000 
 811              	.LVL80:
 812              	.LBE254:
 813              	.LBE253:
 146:lib/cs1237/src/cs1237.c **** 	//Clk 38-45, write configuration
 147:lib/cs1237/src/cs1237.c **** 	for(int i = 0; i < 8; i++){
 814              		.loc 1 147 2
 815              	.LBB256:
 816              		.loc 1 147 6
 817              	.LBE256:
GAS LISTING /var/folders/_0/fbrtbm_x4pbf1b72ynjm3v580000gn/T//ccIuB4VY.s 			page 20


 818              	.LBB267:
 819              	.LBB255:
  16:lib/cs1237/src/cs1237.c **** }
 820              		.loc 1 16 2 is_stmt 0
 821 00b4 2144     		li	s0,8
 822              	.LVL81:
 823              	.L26:
 824              	.LBE255:
 825              	.LBE267:
 826              	.LBB268:
 148:lib/cs1237/src/cs1237.c **** 		clk(1);
 827              		.loc 1 148 3 is_stmt 1
 828              	.LBB257:
 829              	.LBB258:
   8:lib/cs1237/src/cs1237.c **** }
 830              		.loc 1 8 2
 831 00b6 0545     		li	a0,1
 832 00b8 97000000 		call	cs1237_port_set_clock_pin
 832      E7800000 
 833              	.LVL82:
 834              	.LBE258:
 835              	.LBE257:
 149:lib/cs1237/src/cs1237.c **** 		wait();
 836              		.loc 1 149 3
 837              	.LBB259:
 838              	.LBB260:
  12:lib/cs1237/src/cs1237.c **** }
 839              		.loc 1 12 2
 840 00c0 97000000 		call	cs1237_port_wait_min_455ns
 840      E7800000 
 841              	.LVL83:
 842              	.LBE260:
 843              	.LBE259:
 150:lib/cs1237/src/cs1237.c **** 		config = (config << 1) & get_drdy();
 844              		.loc 1 150 3
 845              	.LBB261:
 846              	.LBB262:
  28:lib/cs1237/src/cs1237.c **** }
 847              		.loc 1 28 2
  28:lib/cs1237/src/cs1237.c **** }
 848              		.loc 1 28 9 is_stmt 0
 849 00c8 97000000 		call	cs1237_get_drdy_value
 849      E7800000 
 850              	.LVL84:
 851              	.LBE262:
 852              	.LBE261:
 151:lib/cs1237/src/cs1237.c **** 		clk(0);
 853              		.loc 1 151 3 is_stmt 1
 854              	.LBB263:
 855              	.LBB264:
   8:lib/cs1237/src/cs1237.c **** }
 856              		.loc 1 8 2
 857 00d0 0145     		li	a0,0
 858 00d2 7D14     		addi	s0,s0,-1
 859              	.LVL85:
 860 00d4 97000000 		call	cs1237_port_set_clock_pin
 860      E7800000 
GAS LISTING /var/folders/_0/fbrtbm_x4pbf1b72ynjm3v580000gn/T//ccIuB4VY.s 			page 21


 861              	.LVL86:
 862              	.LBE264:
 863              	.LBE263:
 152:lib/cs1237/src/cs1237.c **** 		wait();
 864              		.loc 1 152 3
 865              	.LBB265:
 866              	.LBB266:
  12:lib/cs1237/src/cs1237.c **** }
 867              		.loc 1 12 2
 868 00dc 97000000 		call	cs1237_port_wait_min_455ns
 868      E7800000 
 869              	.LVL87:
 870              	.LBE266:
 871              	.LBE265:
 147:lib/cs1237/src/cs1237.c **** 		clk(1);
 872              		.loc 1 147 2 is_stmt 0
 873 00e4 69F8     		bne	s0,zero,.L26
 874              	.LBE268:
 153:lib/cs1237/src/cs1237.c **** 	}
 154:lib/cs1237/src/cs1237.c **** 	
 155:lib/cs1237/src/cs1237.c **** 	//Clk 46
 156:lib/cs1237/src/cs1237.c **** 	clk(1);
 875              		.loc 1 156 2 is_stmt 1
 876              	.LVL88:
 877              	.LBB269:
 878              	.LBB270:
   8:lib/cs1237/src/cs1237.c **** }
 879              		.loc 1 8 2
 880 00e6 0545     		li	a0,1
 881 00e8 97000000 		call	cs1237_port_set_clock_pin
 881      E7800000 
 882              	.LVL89:
 883              	.LBE270:
 884              	.LBE269:
 157:lib/cs1237/src/cs1237.c **** 	wait();
 885              		.loc 1 157 2
 886              	.LBB271:
 887              	.LBB272:
  12:lib/cs1237/src/cs1237.c **** }
 888              		.loc 1 12 2
 889 00f0 97000000 		call	cs1237_port_wait_min_455ns
 889      E7800000 
 890              	.LVL90:
 891              	.LBE272:
 892              	.LBE271:
 158:lib/cs1237/src/cs1237.c **** 	clk(0);
 893              		.loc 1 158 2
 894              	.LBB273:
 895              	.LBB274:
   8:lib/cs1237/src/cs1237.c **** }
 896              		.loc 1 8 2
 897 00f8 0145     		li	a0,0
 898 00fa 97000000 		call	cs1237_port_set_clock_pin
 898      E7800000 
 899              	.LVL91:
 900              	.LBE274:
 901              	.LBE273:
GAS LISTING /var/folders/_0/fbrtbm_x4pbf1b72ynjm3v580000gn/T//ccIuB4VY.s 			page 22


 159:lib/cs1237/src/cs1237.c **** 	wait();
 902              		.loc 1 159 2
 903              	.LBB275:
 904              	.LBB276:
  12:lib/cs1237/src/cs1237.c **** }
 905              		.loc 1 12 2
 906 0102 97000000 		call	cs1237_port_wait_min_455ns
 906      E7800000 
 907              	.LVL92:
 908              	.LBE276:
 909              	.LBE275:
 160:lib/cs1237/src/cs1237.c **** 
 161:lib/cs1237/src/cs1237.c **** 	return config;
 910              		.loc 1 161 2
 162:lib/cs1237/src/cs1237.c **** }
 911              		.loc 1 162 1 is_stmt 0
 912 010a B240     		lw	ra,12(sp)
 913              		.cfi_restore 1
 914 010c 2244     		lw	s0,8(sp)
 915              		.cfi_restore 8
 916 010e 9244     		lw	s1,4(sp)
 917              		.cfi_restore 9
 918 0110 0249     		lw	s2,0(sp)
 919              		.cfi_restore 18
 920 0112 0145     		li	a0,0
 921 0114 4101     		addi	sp,sp,16
 922              	.LCFI7:
 923              		.cfi_def_cfa_offset 0
 924 0116 8280     		jr	ra
 925              		.cfi_endproc
 926              	.LFE9:
 928              		.section	.text.cs1237_sample_rate_and_gain,"ax",@progbits
 929              		.align	1
 930              		.globl	cs1237_sample_rate_and_gain
 932              	cs1237_sample_rate_and_gain:
 933              	.LFB10:
 163:lib/cs1237/src/cs1237.c **** 
 164:lib/cs1237/src/cs1237.c **** void cs1237_sample_rate_and_gain(uint8_t sample_rate, uint8_t gain){
 934              		.loc 1 164 68 is_stmt 1
 935              		.cfi_startproc
 936              	.LVL93:
 165:lib/cs1237/src/cs1237.c ****     uint8_t config = current_config;
 937              		.loc 1 165 5
 166:lib/cs1237/src/cs1237.c ****     config = (config & 0xC3) | ((sample_rate & 0x3) << 4) | ((gain & 0x3) << 2);
 938              		.loc 1 166 5
 939              		.loc 1 166 22 is_stmt 0
 940 0000 B7070000 		lui	a5,%hi(.LANCHOR0)
 941 0004 83C70700 		lbu	a5,%lo(.LANCHOR0)(a5)
 942              		.loc 1 166 75
 943 0008 8A05     		slli	a1,a1,2
 944              	.LVL94:
 945 000a B189     		andi	a1,a1,12
 946              		.loc 1 166 22
 947 000c 93F737FC 		andi	a5,a5,-61
 948              		.loc 1 166 53
 949 0010 1205     		slli	a0,a0,4
 950              	.LVL95:
GAS LISTING /var/folders/_0/fbrtbm_x4pbf1b72ynjm3v580000gn/T//ccIuB4VY.s 			page 23


 951              		.loc 1 166 59
 952 0012 CD8F     		or	a5,a5,a1
 953              		.loc 1 166 53
 954 0014 13750503 		andi	a0,a0,48
 955              	.LVL96:
 167:lib/cs1237/src/cs1237.c ****     cs1237_configure(config);
 956              		.loc 1 167 5 is_stmt 1
 957 0018 5D8D     		or	a0,a5,a0
 958              	.LVL97:
 959 001a 17030000 		tail	cs1237_configure
 959      67000300 
 960              	.LVL98:
 961              		.cfi_endproc
 962              	.LFE10:
 964              		.globl	current_config
 965              		.section	.sdata.current_config,"aw"
 966              		.set	.LANCHOR0,. + 0
 969              	current_config:
 970 0000 0C       		.byte	12
 971              		.text
 972              	.Letext0:
 973              		.file 2 "/Users/gustavsf/Desktop/toolchain-gd32v-v202-osx/compiler/riscv64-unknown-elf/include/mac
 974              		.file 3 "/Users/gustavsf/Desktop/toolchain-gd32v-v202-osx/compiler/riscv64-unknown-elf/include/sys
 975              		.file 4 "lib/cs1237/include/cs1237_port.h"
GAS LISTING /var/folders/_0/fbrtbm_x4pbf1b72ynjm3v580000gn/T//ccIuB4VY.s 			page 24

