GAS LISTING /var/folders/_0/fbrtbm_x4pbf1b72ynjm3v580000gn/T//ccbodRiF.s 			page 1


   1              		.file	"gd32vf103_usb_it.c"
   2              		.option nopic
   3              		.attribute arch, "rv32i2p0_m2p0_a2p0_c2p0"
   4              		.attribute unaligned_access, 0
   5              		.attribute stack_align, 16
   6              		.text
   7              	.Ltext0:
   8              		.cfi_sections	.debug_frame
   9              		.section	.text.USBFS_IRQHandler,"ax",@progbits
  10              		.align	1
  11              		.globl	USBFS_IRQHandler
  13              	USBFS_IRQHandler:
  14              	.LFB6:
  15              		.file 1 "lib/usbcdc/src/gd32vf103_usb_it.c"
   1:lib/usbcdc/src/gd32vf103_usb_it.c **** /*!
   2:lib/usbcdc/src/gd32vf103_usb_it.c ****     \file  gd32vf103_it.c
   3:lib/usbcdc/src/gd32vf103_usb_it.c ****     \brief main interrupt service routines
   4:lib/usbcdc/src/gd32vf103_usb_it.c **** 
   5:lib/usbcdc/src/gd32vf103_usb_it.c ****     \version 2019-6-5, V1.0.0, demo for GD32VF103
   6:lib/usbcdc/src/gd32vf103_usb_it.c **** */
   7:lib/usbcdc/src/gd32vf103_usb_it.c **** 
   8:lib/usbcdc/src/gd32vf103_usb_it.c **** /*
   9:lib/usbcdc/src/gd32vf103_usb_it.c ****     Copyright (c) 2019, GigaDevice Semiconductor Inc.
  10:lib/usbcdc/src/gd32vf103_usb_it.c **** 
  11:lib/usbcdc/src/gd32vf103_usb_it.c ****     Redistribution and use in source and binary forms, with or without modification, 
  12:lib/usbcdc/src/gd32vf103_usb_it.c **** are permitted provided that the following conditions are met:
  13:lib/usbcdc/src/gd32vf103_usb_it.c **** 
  14:lib/usbcdc/src/gd32vf103_usb_it.c ****     1. Redistributions of source code must retain the above copyright notice, this 
  15:lib/usbcdc/src/gd32vf103_usb_it.c ****        list of conditions and the following disclaimer.
  16:lib/usbcdc/src/gd32vf103_usb_it.c ****     2. Redistributions in binary form must reproduce the above copyright notice, 
  17:lib/usbcdc/src/gd32vf103_usb_it.c ****        this list of conditions and the following disclaimer in the documentation 
  18:lib/usbcdc/src/gd32vf103_usb_it.c ****        and/or other materials provided with the distribution.
  19:lib/usbcdc/src/gd32vf103_usb_it.c ****     3. Neither the name of the copyright holder nor the names of its contributors 
  20:lib/usbcdc/src/gd32vf103_usb_it.c ****        may be used to endorse or promote products derived from this software without 
  21:lib/usbcdc/src/gd32vf103_usb_it.c ****        specific prior written permission.
  22:lib/usbcdc/src/gd32vf103_usb_it.c **** 
  23:lib/usbcdc/src/gd32vf103_usb_it.c ****     THIS SOFTWARE IS PROVIDED BY THE COPYRIGHT HOLDERS AND CONTRIBUTORS "AS IS" 
  24:lib/usbcdc/src/gd32vf103_usb_it.c **** AND ANY EXPRESS OR IMPLIED WARRANTIES, INCLUDING, BUT NOT LIMITED TO, THE IMPLIED 
  25:lib/usbcdc/src/gd32vf103_usb_it.c **** WARRANTIES OF MERCHANTABILITY AND FITNESS FOR A PARTICULAR PURPOSE ARE DISCLAIMED. 
  26:lib/usbcdc/src/gd32vf103_usb_it.c **** IN NO EVENT SHALL THE COPYRIGHT HOLDER OR CONTRIBUTORS BE LIABLE FOR ANY DIRECT, 
  27:lib/usbcdc/src/gd32vf103_usb_it.c **** INDIRECT, INCIDENTAL, SPECIAL, EXEMPLARY, OR CONSEQUENTIAL DAMAGES (INCLUDING, BUT 
  28:lib/usbcdc/src/gd32vf103_usb_it.c **** NOT LIMITED TO, PROCUREMENT OF SUBSTITUTE GOODS OR SERVICES; LOSS OF USE, DATA, OR 
  29:lib/usbcdc/src/gd32vf103_usb_it.c **** PROFITS; OR BUSINESS INTERRUPTION) HOWEVER CAUSED AND ON ANY THEORY OF LIABILITY, 
  30:lib/usbcdc/src/gd32vf103_usb_it.c **** WHETHER IN CONTRACT, STRICT LIABILITY, OR TORT (INCLUDING NEGLIGENCE OR OTHERWISE) 
  31:lib/usbcdc/src/gd32vf103_usb_it.c **** ARISING IN ANY WAY OUT OF THE USE OF THIS SOFTWARE, EVEN IF ADVISED OF THE POSSIBILITY 
  32:lib/usbcdc/src/gd32vf103_usb_it.c **** OF SUCH DAMAGE.
  33:lib/usbcdc/src/gd32vf103_usb_it.c **** */
  34:lib/usbcdc/src/gd32vf103_usb_it.c **** 
  35:lib/usbcdc/src/gd32vf103_usb_it.c **** #include "gd32vf103.h"
  36:lib/usbcdc/src/gd32vf103_usb_it.c **** #include "drv_usbd_int.h"
  37:lib/usbcdc/src/gd32vf103_usb_it.c **** #include "drv_usb_hw.h"
  38:lib/usbcdc/src/gd32vf103_usb_it.c **** #include "gd32vf103_usb_it.h"
  39:lib/usbcdc/src/gd32vf103_usb_it.c **** #include "usb_serial_if.h"
  40:lib/usbcdc/src/gd32vf103_usb_it.c **** 
  41:lib/usbcdc/src/gd32vf103_usb_it.c **** #define DEBUG_SP() asm volatile("csrrw sp, mscratch, sp")
  42:lib/usbcdc/src/gd32vf103_usb_it.c **** //#define DEBUG_PIN_ON() gpio_bit_set(GPIOB, GPIO_PIN_0)
  43:lib/usbcdc/src/gd32vf103_usb_it.c **** //#define DEBUG_PIN_OFF() gpio_bit_reset(GPIOB, GPIO_PIN_0)
GAS LISTING /var/folders/_0/fbrtbm_x4pbf1b72ynjm3v580000gn/T//ccbodRiF.s 			page 2


  44:lib/usbcdc/src/gd32vf103_usb_it.c **** 
  45:lib/usbcdc/src/gd32vf103_usb_it.c **** extern usb_core_driver USB_OTG_dev;
  46:lib/usbcdc/src/gd32vf103_usb_it.c **** extern uint32_t usbfs_prescaler;
  47:lib/usbcdc/src/gd32vf103_usb_it.c **** 
  48:lib/usbcdc/src/gd32vf103_usb_it.c **** extern void usb_timer_irq(void);
  49:lib/usbcdc/src/gd32vf103_usb_it.c **** 
  50:lib/usbcdc/src/gd32vf103_usb_it.c **** /*!
  51:lib/usbcdc/src/gd32vf103_usb_it.c ****     \brief      this function handles USBD interrupt//
  52:lib/usbcdc/src/gd32vf103_usb_it.c ****     \param[in]  none
  53:lib/usbcdc/src/gd32vf103_usb_it.c ****     \param[out] none
  54:lib/usbcdc/src/gd32vf103_usb_it.c ****     \retval     none
  55:lib/usbcdc/src/gd32vf103_usb_it.c **** */
  56:lib/usbcdc/src/gd32vf103_usb_it.c **** void USBFS_IRQHandler (void)
  57:lib/usbcdc/src/gd32vf103_usb_it.c **** { 
  16              		.loc 1 57 1
  17              		.cfi_startproc
  58:lib/usbcdc/src/gd32vf103_usb_it.c ****     //DEBUG_PIN_ON();
  59:lib/usbcdc/src/gd32vf103_usb_it.c ****     usbd_isr (&USB_OTG_dev);
  18              		.loc 1 59 5
  19 0000 37050000 		lui	a0,%hi(USB_OTG_dev)
  20 0004 13050500 		addi	a0,a0,%lo(USB_OTG_dev)
  21 0008 17030000 		tail	usbd_isr
  21      67000300 
  22              	.LVL0:
  23              		.cfi_endproc
  24              	.LFE6:
  26              		.section	.text.USBFS_WKUP_IRQHandler,"ax",@progbits
  27              		.align	1
  28              		.globl	USBFS_WKUP_IRQHandler
  30              	USBFS_WKUP_IRQHandler:
  31              	.LFB7:
  60:lib/usbcdc/src/gd32vf103_usb_it.c **** }
  61:lib/usbcdc/src/gd32vf103_usb_it.c **** 
  62:lib/usbcdc/src/gd32vf103_usb_it.c **** 
  63:lib/usbcdc/src/gd32vf103_usb_it.c **** 
  64:lib/usbcdc/src/gd32vf103_usb_it.c **** /*!
  65:lib/usbcdc/src/gd32vf103_usb_it.c ****     \brief      this function handles USBD wakeup interrupt request.
  66:lib/usbcdc/src/gd32vf103_usb_it.c ****     \param[in]  none
  67:lib/usbcdc/src/gd32vf103_usb_it.c ****     \param[out] none
  68:lib/usbcdc/src/gd32vf103_usb_it.c ****     \retval     none
  69:lib/usbcdc/src/gd32vf103_usb_it.c **** */
  70:lib/usbcdc/src/gd32vf103_usb_it.c **** void USBFS_WKUP_IRQHandler(void)
  71:lib/usbcdc/src/gd32vf103_usb_it.c **** {
  32              		.loc 1 71 1
  33              		.cfi_startproc
  72:lib/usbcdc/src/gd32vf103_usb_it.c ****     //DEBUG_PIN_ON();
  73:lib/usbcdc/src/gd32vf103_usb_it.c ****     if (USB_OTG_dev.bp.low_power) {
  34              		.loc 1 73 5
  71:lib/usbcdc/src/gd32vf103_usb_it.c ****     //DEBUG_PIN_ON();
  35              		.loc 1 71 1 is_stmt 0
  36 0000 4111     		addi	sp,sp,-16
  37              	.LCFI0:
  38              		.cfi_def_cfa_offset 16
  39 0002 22C4     		sw	s0,8(sp)
  40              		.cfi_offset 8, -8
  41              		.loc 1 73 23
  42 0004 37040000 		lui	s0,%hi(USB_OTG_dev)
GAS LISTING /var/folders/_0/fbrtbm_x4pbf1b72ynjm3v580000gn/T//ccbodRiF.s 			page 3


  71:lib/usbcdc/src/gd32vf103_usb_it.c ****     //DEBUG_PIN_ON();
  43              		.loc 1 71 1
  44 0008 06C6     		sw	ra,12(sp)
  45              		.cfi_offset 1, -4
  46              		.loc 1 73 23
  47 000a 93070400 		addi	a5,s0,%lo(USB_OTG_dev)
  48              		.loc 1 73 8
  49 000e 83C77700 		lbu	a5,7(a5)
  50 0012 8DCB     		beq	a5,zero,.L3
  74:lib/usbcdc/src/gd32vf103_usb_it.c ****         //SystemInit();
  75:lib/usbcdc/src/gd32vf103_usb_it.c ****         set_usb_clock_96m_hxtal();
  51              		.loc 1 75 9 is_stmt 1
  52 0014 97000000 		call	set_usb_clock_96m_hxtal
  52      E7800000 
  53              	.LVL1:
  76:lib/usbcdc/src/gd32vf103_usb_it.c ****         rcu_usb_clock_config(usbfs_prescaler);
  54              		.loc 1 76 9
  55 001c B7070000 		lui	a5,%hi(usbfs_prescaler)
  56 0020 03A50700 		lw	a0,%lo(usbfs_prescaler)(a5)
  57 0024 97000000 		call	rcu_usb_clock_config
  57      E7800000 
  58              	.LVL2:
  77:lib/usbcdc/src/gd32vf103_usb_it.c **** 
  78:lib/usbcdc/src/gd32vf103_usb_it.c ****         rcu_periph_clock_enable(RCU_USBFS);
  59              		.loc 1 78 9
  60 002c 1305C050 		li	a0,1292
  61 0030 97000000 		call	rcu_periph_clock_enable
  61      E7800000 
  62              	.LVL3:
  79:lib/usbcdc/src/gd32vf103_usb_it.c **** 
  80:lib/usbcdc/src/gd32vf103_usb_it.c ****         usb_clock_active(&USB_OTG_dev);
  63              		.loc 1 80 9
  64 0038 13050400 		addi	a0,s0,%lo(USB_OTG_dev)
  65 003c 97000000 		call	usb_clock_active
  65      E7800000 
  66              	.LVL4:
  67              	.L3:
  81:lib/usbcdc/src/gd32vf103_usb_it.c ****     }
  82:lib/usbcdc/src/gd32vf103_usb_it.c **** 
  83:lib/usbcdc/src/gd32vf103_usb_it.c ****     exti_interrupt_flag_clear(EXTI_18);
  68              		.loc 1 83 5
  84:lib/usbcdc/src/gd32vf103_usb_it.c **** }
  69              		.loc 1 84 1 is_stmt 0
  70 0044 2244     		lw	s0,8(sp)
  71              		.cfi_restore 8
  72 0046 B240     		lw	ra,12(sp)
  73              		.cfi_restore 1
  83:lib/usbcdc/src/gd32vf103_usb_it.c **** }
  74              		.loc 1 83 5
  75 0048 37050400 		li	a0,262144
  76              		.loc 1 84 1
  77 004c 4101     		addi	sp,sp,16
  78              	.LCFI1:
  79              		.cfi_def_cfa_offset 0
  83:lib/usbcdc/src/gd32vf103_usb_it.c **** }
  80              		.loc 1 83 5
  81 004e 17030000 		tail	exti_interrupt_flag_clear
GAS LISTING /var/folders/_0/fbrtbm_x4pbf1b72ynjm3v580000gn/T//ccbodRiF.s 			page 4


  81      67000300 
  82              	.LVL5:
  83              		.cfi_endproc
  84              	.LFE7:
  86              		.text
  87              	.Letext0:
  88              		.file 2 "/Users/gustavsf/Desktop/toolchain-gd32v-v202-osx/compiler/riscv64-unknown-elf/include/mac
  89              		.file 3 "/Users/gustavsf/Desktop/toolchain-gd32v-v202-osx/compiler/riscv64-unknown-elf/include/sys
  90              		.file 4 "../../firmware/GD32VF103_standard_peripheral/Include/gd32vf103_exti.h"
  91              		.file 5 "../../firmware/GD32VF103_standard_peripheral/Include/gd32vf103_rcu.h"
  92              		.file 6 "lib/usbcdc/include/drv_usb_regs.h"
  93              		.file 7 "../../firmware/GD32VF103_standard_peripheral/system_gd32vf103.h"
  94              		.file 8 "lib/usbcdc/include/usb_ch9_std.h"
  95              		.file 9 "lib/usbcdc/include/drv_usb_core.h"
  96              		.file 10 "lib/usbcdc/include/drv_usb_dev.h"
  97              		.file 11 "/Users/gustavsf/Desktop/toolchain-gd32v-v202-osx/compiler/lib/gcc/riscv64-unknown-elf/8.
  98              		.file 12 "/Users/gustavsf/Desktop/toolchain-gd32v-v202-osx/compiler/riscv64-unknown-elf/include/sy
  99              		.file 13 "/Users/gustavsf/Desktop/toolchain-gd32v-v202-osx/compiler/riscv64-unknown-elf/include/sy
 100              		.file 14 "/Users/gustavsf/Desktop/toolchain-gd32v-v202-osx/compiler/riscv64-unknown-elf/include/sy
 101              		.file 15 "lib/usbcdc/include/cdc_acm_core.h"
 102              		.file 16 "/Users/gustavsf/Desktop/toolchain-gd32v-v202-osx/compiler/riscv64-unknown-elf/include/st
 103              		.file 17 "lib/usbcdc/include/usb_serial_if.h"
 104              		.file 18 "lib/usbcdc/include/drv_usbd_int.h"
GAS LISTING /var/folders/_0/fbrtbm_x4pbf1b72ynjm3v580000gn/T//ccbodRiF.s 			page 5


DEFINED SYMBOLS
                            *ABS*:0000000000000000 gd32vf103_usb_it.c
/var/folders/_0/fbrtbm_x4pbf1b72ynjm3v580000gn/T//ccbodRiF.s:13     .text.USBFS_IRQHandler:0000000000000000 USBFS_IRQHandler
/var/folders/_0/fbrtbm_x4pbf1b72ynjm3v580000gn/T//ccbodRiF.s:17     .text.USBFS_IRQHandler:0000000000000000 .L0 
/var/folders/_0/fbrtbm_x4pbf1b72ynjm3v580000gn/T//ccbodRiF.s:18     .text.USBFS_IRQHandler:0000000000000000 .L0 
/var/folders/_0/fbrtbm_x4pbf1b72ynjm3v580000gn/T//ccbodRiF.s:19     .text.USBFS_IRQHandler:0000000000000000 .L0 
/var/folders/_0/fbrtbm_x4pbf1b72ynjm3v580000gn/T//ccbodRiF.s:23     .text.USBFS_IRQHandler:0000000000000010 .L0 
/var/folders/_0/fbrtbm_x4pbf1b72ynjm3v580000gn/T//ccbodRiF.s:30     .text.USBFS_WKUP_IRQHandler:0000000000000000 USBFS_WKUP_IRQHandler
/var/folders/_0/fbrtbm_x4pbf1b72ynjm3v580000gn/T//ccbodRiF.s:33     .text.USBFS_WKUP_IRQHandler:0000000000000000 .L0 
/var/folders/_0/fbrtbm_x4pbf1b72ynjm3v580000gn/T//ccbodRiF.s:34     .text.USBFS_WKUP_IRQHandler:0000000000000000 .L0 
/var/folders/_0/fbrtbm_x4pbf1b72ynjm3v580000gn/T//ccbodRiF.s:35     .text.USBFS_WKUP_IRQHandler:0000000000000000 .L0 
/var/folders/_0/fbrtbm_x4pbf1b72ynjm3v580000gn/T//ccbodRiF.s:36     .text.USBFS_WKUP_IRQHandler:0000000000000000 .L0 
/var/folders/_0/fbrtbm_x4pbf1b72ynjm3v580000gn/T//ccbodRiF.s:38     .text.USBFS_WKUP_IRQHandler:0000000000000002 .L0 
/var/folders/_0/fbrtbm_x4pbf1b72ynjm3v580000gn/T//ccbodRiF.s:40     .text.USBFS_WKUP_IRQHandler:0000000000000004 .L0 
/var/folders/_0/fbrtbm_x4pbf1b72ynjm3v580000gn/T//ccbodRiF.s:42     .text.USBFS_WKUP_IRQHandler:0000000000000004 .L0 
/var/folders/_0/fbrtbm_x4pbf1b72ynjm3v580000gn/T//ccbodRiF.s:44     .text.USBFS_WKUP_IRQHandler:0000000000000008 .L0 
/var/folders/_0/fbrtbm_x4pbf1b72ynjm3v580000gn/T//ccbodRiF.s:45     .text.USBFS_WKUP_IRQHandler:000000000000000a .L0 
/var/folders/_0/fbrtbm_x4pbf1b72ynjm3v580000gn/T//ccbodRiF.s:47     .text.USBFS_WKUP_IRQHandler:000000000000000a .L0 
/var/folders/_0/fbrtbm_x4pbf1b72ynjm3v580000gn/T//ccbodRiF.s:49     .text.USBFS_WKUP_IRQHandler:000000000000000e .L0 
/var/folders/_0/fbrtbm_x4pbf1b72ynjm3v580000gn/T//ccbodRiF.s:52     .text.USBFS_WKUP_IRQHandler:0000000000000014 .L0 
/var/folders/_0/fbrtbm_x4pbf1b72ynjm3v580000gn/T//ccbodRiF.s:55     .text.USBFS_WKUP_IRQHandler:000000000000001c .L0 
/var/folders/_0/fbrtbm_x4pbf1b72ynjm3v580000gn/T//ccbodRiF.s:60     .text.USBFS_WKUP_IRQHandler:000000000000002c .L0 
/var/folders/_0/fbrtbm_x4pbf1b72ynjm3v580000gn/T//ccbodRiF.s:64     .text.USBFS_WKUP_IRQHandler:0000000000000038 .L0 
/var/folders/_0/fbrtbm_x4pbf1b72ynjm3v580000gn/T//ccbodRiF.s:69     .text.USBFS_WKUP_IRQHandler:0000000000000044 .L0 
/var/folders/_0/fbrtbm_x4pbf1b72ynjm3v580000gn/T//ccbodRiF.s:70     .text.USBFS_WKUP_IRQHandler:0000000000000044 .L0 
/var/folders/_0/fbrtbm_x4pbf1b72ynjm3v580000gn/T//ccbodRiF.s:71     .text.USBFS_WKUP_IRQHandler:0000000000000046 .L0 
/var/folders/_0/fbrtbm_x4pbf1b72ynjm3v580000gn/T//ccbodRiF.s:73     .text.USBFS_WKUP_IRQHandler:0000000000000048 .L0 
/var/folders/_0/fbrtbm_x4pbf1b72ynjm3v580000gn/T//ccbodRiF.s:75     .text.USBFS_WKUP_IRQHandler:0000000000000048 .L0 
/var/folders/_0/fbrtbm_x4pbf1b72ynjm3v580000gn/T//ccbodRiF.s:77     .text.USBFS_WKUP_IRQHandler:000000000000004c .L0 
/var/folders/_0/fbrtbm_x4pbf1b72ynjm3v580000gn/T//ccbodRiF.s:79     .text.USBFS_WKUP_IRQHandler:000000000000004e .L0 
/var/folders/_0/fbrtbm_x4pbf1b72ynjm3v580000gn/T//ccbodRiF.s:81     .text.USBFS_WKUP_IRQHandler:000000000000004e .L0 
/var/folders/_0/fbrtbm_x4pbf1b72ynjm3v580000gn/T//ccbodRiF.s:83     .text.USBFS_WKUP_IRQHandler:0000000000000056 .L0 
/var/folders/_0/fbrtbm_x4pbf1b72ynjm3v580000gn/T//ccbodRiF.s:26     .text.USBFS_IRQHandler:0000000000000010 .L0 
/var/folders/_0/fbrtbm_x4pbf1b72ynjm3v580000gn/T//ccbodRiF.s:86     .text.USBFS_WKUP_IRQHandler:0000000000000056 .L0 
                     .debug_frame:0000000000000000 .L0 
/var/folders/_0/fbrtbm_x4pbf1b72ynjm3v580000gn/T//ccbodRiF.s:67     .text.USBFS_WKUP_IRQHandler:0000000000000044 .L3
/var/folders/_0/fbrtbm_x4pbf1b72ynjm3v580000gn/T//ccbodRiF.s:4195   .debug_abbrev:0000000000000000 .Ldebug_abbrev0
/var/folders/_0/fbrtbm_x4pbf1b72ynjm3v580000gn/T//ccbodRiF.s:5006   .debug_str:0000000000000263 .LASF404
/var/folders/_0/fbrtbm_x4pbf1b72ynjm3v580000gn/T//ccbodRiF.s:5348   .debug_str:0000000000000a39 .LASF405
/var/folders/_0/fbrtbm_x4pbf1b72ynjm3v580000gn/T//ccbodRiF.s:5446   .debug_str:0000000000000ca1 .LASF406
/var/folders/_0/fbrtbm_x4pbf1b72ynjm3v580000gn/T//ccbodRiF.s:4894   .debug_ranges:0000000000000000 .Ldebug_ranges0
/var/folders/_0/fbrtbm_x4pbf1b72ynjm3v580000gn/T//ccbodRiF.s:4902   .debug_line:0000000000000000 .Ldebug_line0
/var/folders/_0/fbrtbm_x4pbf1b72ynjm3v580000gn/T//ccbodRiF.s:5368   .debug_str:0000000000000ac1 .LASF0
/var/folders/_0/fbrtbm_x4pbf1b72ynjm3v580000gn/T//ccbodRiF.s:5096   .debug_str:00000000000004d9 .LASF1
/var/folders/_0/fbrtbm_x4pbf1b72ynjm3v580000gn/T//ccbodRiF.s:5026   .debug_str:000000000000034f .LASF4
/var/folders/_0/fbrtbm_x4pbf1b72ynjm3v580000gn/T//ccbodRiF.s:5112   .debug_str:0000000000000551 .LASF2
/var/folders/_0/fbrtbm_x4pbf1b72ynjm3v580000gn/T//ccbodRiF.s:5578   .debug_str:0000000000000f5f .LASF3
/var/folders/_0/fbrtbm_x4pbf1b72ynjm3v580000gn/T//ccbodRiF.s:5168   .debug_str:000000000000067b .LASF5
/var/folders/_0/fbrtbm_x4pbf1b72ynjm3v580000gn/T//ccbodRiF.s:5678   .debug_str:0000000000001162 .LASF6
/var/folders/_0/fbrtbm_x4pbf1b72ynjm3v580000gn/T//ccbodRiF.s:5048   .debug_str:00000000000003bf .LASF7
/var/folders/_0/fbrtbm_x4pbf1b72ynjm3v580000gn/T//ccbodRiF.s:5302   .debug_str:0000000000000935 .LASF8
/var/folders/_0/fbrtbm_x4pbf1b72ynjm3v580000gn/T//ccbodRiF.s:5244   .debug_str:00000000000007ef .LASF9
/var/folders/_0/fbrtbm_x4pbf1b72ynjm3v580000gn/T//ccbodRiF.s:5310   .debug_str:000000000000095d .LASF10
/var/folders/_0/fbrtbm_x4pbf1b72ynjm3v580000gn/T//ccbodRiF.s:5474   .debug_str:0000000000000d6e .LASF11
/var/folders/_0/fbrtbm_x4pbf1b72ynjm3v580000gn/T//ccbodRiF.s:5098   .debug_str:00000000000004e5 .LASF12
/var/folders/_0/fbrtbm_x4pbf1b72ynjm3v580000gn/T//ccbodRiF.s:5482   .debug_str:0000000000000da2 .LASF13
/var/folders/_0/fbrtbm_x4pbf1b72ynjm3v580000gn/T//ccbodRiF.s:5634   .debug_str:00000000000010a0 .LASF14
GAS LISTING /var/folders/_0/fbrtbm_x4pbf1b72ynjm3v580000gn/T//ccbodRiF.s 			page 6


/var/folders/_0/fbrtbm_x4pbf1b72ynjm3v580000gn/T//ccbodRiF.s:5258   .debug_str:0000000000000850 .LASF143
/var/folders/_0/fbrtbm_x4pbf1b72ynjm3v580000gn/T//ccbodRiF.s:5650   .debug_str:00000000000010fe .LASF15
/var/folders/_0/fbrtbm_x4pbf1b72ynjm3v580000gn/T//ccbodRiF.s:5652   .debug_str:0000000000001105 .LASF16
/var/folders/_0/fbrtbm_x4pbf1b72ynjm3v580000gn/T//ccbodRiF.s:5654   .debug_str:000000000000110c .LASF17
/var/folders/_0/fbrtbm_x4pbf1b72ynjm3v580000gn/T//ccbodRiF.s:5656   .debug_str:0000000000001113 .LASF18
/var/folders/_0/fbrtbm_x4pbf1b72ynjm3v580000gn/T//ccbodRiF.s:5658   .debug_str:000000000000111a .LASF19
/var/folders/_0/fbrtbm_x4pbf1b72ynjm3v580000gn/T//ccbodRiF.s:5660   .debug_str:0000000000001121 .LASF20
/var/folders/_0/fbrtbm_x4pbf1b72ynjm3v580000gn/T//ccbodRiF.s:5662   .debug_str:0000000000001128 .LASF21
/var/folders/_0/fbrtbm_x4pbf1b72ynjm3v580000gn/T//ccbodRiF.s:5664   .debug_str:000000000000112f .LASF22
/var/folders/_0/fbrtbm_x4pbf1b72ynjm3v580000gn/T//ccbodRiF.s:5666   .debug_str:0000000000001136 .LASF23
/var/folders/_0/fbrtbm_x4pbf1b72ynjm3v580000gn/T//ccbodRiF.s:5668   .debug_str:000000000000113d .LASF24
/var/folders/_0/fbrtbm_x4pbf1b72ynjm3v580000gn/T//ccbodRiF.s:5208   .debug_str:0000000000000742 .LASF25
/var/folders/_0/fbrtbm_x4pbf1b72ynjm3v580000gn/T//ccbodRiF.s:5210   .debug_str:000000000000074a .LASF26
/var/folders/_0/fbrtbm_x4pbf1b72ynjm3v580000gn/T//ccbodRiF.s:5212   .debug_str:0000000000000752 .LASF27
/var/folders/_0/fbrtbm_x4pbf1b72ynjm3v580000gn/T//ccbodRiF.s:5214   .debug_str:000000000000075a .LASF28
/var/folders/_0/fbrtbm_x4pbf1b72ynjm3v580000gn/T//ccbodRiF.s:5216   .debug_str:0000000000000762 .LASF29
/var/folders/_0/fbrtbm_x4pbf1b72ynjm3v580000gn/T//ccbodRiF.s:5218   .debug_str:000000000000076a .LASF30
/var/folders/_0/fbrtbm_x4pbf1b72ynjm3v580000gn/T//ccbodRiF.s:5220   .debug_str:0000000000000772 .LASF31
/var/folders/_0/fbrtbm_x4pbf1b72ynjm3v580000gn/T//ccbodRiF.s:5222   .debug_str:000000000000077a .LASF32
/var/folders/_0/fbrtbm_x4pbf1b72ynjm3v580000gn/T//ccbodRiF.s:5224   .debug_str:0000000000000782 .LASF33
/var/folders/_0/fbrtbm_x4pbf1b72ynjm3v580000gn/T//ccbodRiF.s:5534   .debug_str:0000000000000e99 .LASF34
/var/folders/_0/fbrtbm_x4pbf1b72ynjm3v580000gn/T//ccbodRiF.s:5536   .debug_str:0000000000000ea2 .LASF35
/var/folders/_0/fbrtbm_x4pbf1b72ynjm3v580000gn/T//ccbodRiF.s:5370   .debug_str:0000000000000ace .LASF36
/var/folders/_0/fbrtbm_x4pbf1b72ynjm3v580000gn/T//ccbodRiF.s:5620   .debug_str:0000000000001037 .LASF37
/var/folders/_0/fbrtbm_x4pbf1b72ynjm3v580000gn/T//ccbodRiF.s:5290   .debug_str:00000000000008fb .LASF38
/var/folders/_0/fbrtbm_x4pbf1b72ynjm3v580000gn/T//ccbodRiF.s:4972   .debug_str:0000000000000196 .LASF39
/var/folders/_0/fbrtbm_x4pbf1b72ynjm3v580000gn/T//ccbodRiF.s:4974   .debug_str:00000000000001a1 .LASF40
/var/folders/_0/fbrtbm_x4pbf1b72ynjm3v580000gn/T//ccbodRiF.s:4976   .debug_str:00000000000001ac .LASF41
/var/folders/_0/fbrtbm_x4pbf1b72ynjm3v580000gn/T//ccbodRiF.s:4978   .debug_str:00000000000001b7 .LASF42
/var/folders/_0/fbrtbm_x4pbf1b72ynjm3v580000gn/T//ccbodRiF.s:4980   .debug_str:00000000000001c2 .LASF43
/var/folders/_0/fbrtbm_x4pbf1b72ynjm3v580000gn/T//ccbodRiF.s:4982   .debug_str:00000000000001cd .LASF44
/var/folders/_0/fbrtbm_x4pbf1b72ynjm3v580000gn/T//ccbodRiF.s:5414   .debug_str:0000000000000bc2 .LASF45
/var/folders/_0/fbrtbm_x4pbf1b72ynjm3v580000gn/T//ccbodRiF.s:5088   .debug_str:00000000000004b3 .LASF46
/var/folders/_0/fbrtbm_x4pbf1b72ynjm3v580000gn/T//ccbodRiF.s:5090   .debug_str:00000000000004bc .LASF47
/var/folders/_0/fbrtbm_x4pbf1b72ynjm3v580000gn/T//ccbodRiF.s:4992   .debug_str:0000000000000226 .LASF48
/var/folders/_0/fbrtbm_x4pbf1b72ynjm3v580000gn/T//ccbodRiF.s:4994   .debug_str:0000000000000231 .LASF49
/var/folders/_0/fbrtbm_x4pbf1b72ynjm3v580000gn/T//ccbodRiF.s:4952   .debug_str:000000000000012b .LASF50
/var/folders/_0/fbrtbm_x4pbf1b72ynjm3v580000gn/T//ccbodRiF.s:4954   .debug_str:0000000000000135 .LASF51
/var/folders/_0/fbrtbm_x4pbf1b72ynjm3v580000gn/T//ccbodRiF.s:5638   .debug_str:00000000000010bb .LASF52
/var/folders/_0/fbrtbm_x4pbf1b72ynjm3v580000gn/T//ccbodRiF.s:5640   .debug_str:00000000000010c4 .LASF53
/var/folders/_0/fbrtbm_x4pbf1b72ynjm3v580000gn/T//ccbodRiF.s:5146   .debug_str:00000000000005fb .LASF54
/var/folders/_0/fbrtbm_x4pbf1b72ynjm3v580000gn/T//ccbodRiF.s:5148   .debug_str:0000000000000604 .LASF55
/var/folders/_0/fbrtbm_x4pbf1b72ynjm3v580000gn/T//ccbodRiF.s:5594   .debug_str:0000000000000fae .LASF56
/var/folders/_0/fbrtbm_x4pbf1b72ynjm3v580000gn/T//ccbodRiF.s:4936   .debug_str:00000000000000d7 .LASF57
/var/folders/_0/fbrtbm_x4pbf1b72ynjm3v580000gn/T//ccbodRiF.s:5100   .debug_str:00000000000004ed .LASF58
/var/folders/_0/fbrtbm_x4pbf1b72ynjm3v580000gn/T//ccbodRiF.s:5440   .debug_str:0000000000000c84 .LASF59
/var/folders/_0/fbrtbm_x4pbf1b72ynjm3v580000gn/T//ccbodRiF.s:5266   .debug_str:0000000000000881 .LASF60
/var/folders/_0/fbrtbm_x4pbf1b72ynjm3v580000gn/T//ccbodRiF.s:5314   .debug_str:0000000000000974 .LASF61
/var/folders/_0/fbrtbm_x4pbf1b72ynjm3v580000gn/T//ccbodRiF.s:5316   .debug_str:000000000000097e .LASF62
/var/folders/_0/fbrtbm_x4pbf1b72ynjm3v580000gn/T//ccbodRiF.s:5318   .debug_str:0000000000000988 .LASF63
/var/folders/_0/fbrtbm_x4pbf1b72ynjm3v580000gn/T//ccbodRiF.s:5320   .debug_str:0000000000000992 .LASF64
/var/folders/_0/fbrtbm_x4pbf1b72ynjm3v580000gn/T//ccbodRiF.s:5322   .debug_str:000000000000099c .LASF65
/var/folders/_0/fbrtbm_x4pbf1b72ynjm3v580000gn/T//ccbodRiF.s:5306   .debug_str:000000000000094b .LASF66
/var/folders/_0/fbrtbm_x4pbf1b72ynjm3v580000gn/T//ccbodRiF.s:5308   .debug_str:0000000000000954 .LASF67
/var/folders/_0/fbrtbm_x4pbf1b72ynjm3v580000gn/T//ccbodRiF.s:4970   .debug_str:000000000000018b .LASF68
/var/folders/_0/fbrtbm_x4pbf1b72ynjm3v580000gn/T//ccbodRiF.s:5086   .debug_str:00000000000004aa .LASF69
/var/folders/_0/fbrtbm_x4pbf1b72ynjm3v580000gn/T//ccbodRiF.s:4990   .debug_str:000000000000021b .LASF70
GAS LISTING /var/folders/_0/fbrtbm_x4pbf1b72ynjm3v580000gn/T//ccbodRiF.s 			page 7


/var/folders/_0/fbrtbm_x4pbf1b72ynjm3v580000gn/T//ccbodRiF.s:5434   .debug_str:0000000000000c61 .LASF71
/var/folders/_0/fbrtbm_x4pbf1b72ynjm3v580000gn/T//ccbodRiF.s:5120   .debug_str:0000000000000580 .LASF72
/var/folders/_0/fbrtbm_x4pbf1b72ynjm3v580000gn/T//ccbodRiF.s:5312   .debug_str:000000000000096b .LASF73
/var/folders/_0/fbrtbm_x4pbf1b72ynjm3v580000gn/T//ccbodRiF.s:5184   .debug_str:00000000000006d4 .LASF74
/var/folders/_0/fbrtbm_x4pbf1b72ynjm3v580000gn/T//ccbodRiF.s:5562   .debug_str:0000000000000f0f .LASF75
/var/folders/_0/fbrtbm_x4pbf1b72ynjm3v580000gn/T//ccbodRiF.s:5194   .debug_str:0000000000000701 .LASF76
/var/folders/_0/fbrtbm_x4pbf1b72ynjm3v580000gn/T//ccbodRiF.s:5690   .debug_str:00000000000011b2 .LASF77
/var/folders/_0/fbrtbm_x4pbf1b72ynjm3v580000gn/T//ccbodRiF.s:5580   .debug_str:0000000000000f69 .LASF78
/var/folders/_0/fbrtbm_x4pbf1b72ynjm3v580000gn/T//ccbodRiF.s:5700   .debug_str:00000000000011f4 .LASF79
/var/folders/_0/fbrtbm_x4pbf1b72ynjm3v580000gn/T//ccbodRiF.s:5698   .debug_str:00000000000011ec .LASF80
/var/folders/_0/fbrtbm_x4pbf1b72ynjm3v580000gn/T//ccbodRiF.s:5552   .debug_str:0000000000000ee3 .LASF81
/var/folders/_0/fbrtbm_x4pbf1b72ynjm3v580000gn/T//ccbodRiF.s:5696   .debug_str:00000000000011d8 .LASF82
/var/folders/_0/fbrtbm_x4pbf1b72ynjm3v580000gn/T//ccbodRiF.s:4938   .debug_str:00000000000000df .LASF83
/var/folders/_0/fbrtbm_x4pbf1b72ynjm3v580000gn/T//ccbodRiF.s:5188   .debug_str:00000000000006e4 .LASF84
/var/folders/_0/fbrtbm_x4pbf1b72ynjm3v580000gn/T//ccbodRiF.s:5132   .debug_str:00000000000005b1 .LASF85
/var/folders/_0/fbrtbm_x4pbf1b72ynjm3v580000gn/T//ccbodRiF.s:5028   .debug_str:0000000000000359 .LASF86
/var/folders/_0/fbrtbm_x4pbf1b72ynjm3v580000gn/T//ccbodRiF.s:5694   .debug_str:00000000000011d0 .LASF87
/var/folders/_0/fbrtbm_x4pbf1b72ynjm3v580000gn/T//ccbodRiF.s:5016   .debug_str:0000000000000312 .LASF88
/var/folders/_0/fbrtbm_x4pbf1b72ynjm3v580000gn/T//ccbodRiF.s:5686   .debug_str:000000000000119a .LASF89
/var/folders/_0/fbrtbm_x4pbf1b72ynjm3v580000gn/T//ccbodRiF.s:5498   .debug_str:0000000000000de4 .LASF90
/var/folders/_0/fbrtbm_x4pbf1b72ynjm3v580000gn/T//ccbodRiF.s:5092   .debug_str:00000000000004c5 .LASF91
/var/folders/_0/fbrtbm_x4pbf1b72ynjm3v580000gn/T//ccbodRiF.s:5444   .debug_str:0000000000000c95 .LASF92
/var/folders/_0/fbrtbm_x4pbf1b72ynjm3v580000gn/T//ccbodRiF.s:5642   .debug_str:00000000000010cd .LASF93
/var/folders/_0/fbrtbm_x4pbf1b72ynjm3v580000gn/T//ccbodRiF.s:5544   .debug_str:0000000000000ebd .LASF94
/var/folders/_0/fbrtbm_x4pbf1b72ynjm3v580000gn/T//ccbodRiF.s:5684   .debug_str:0000000000001190 .LASF95
/var/folders/_0/fbrtbm_x4pbf1b72ynjm3v580000gn/T//ccbodRiF.s:5708   .debug_str:0000000000001227 .LASF96
/var/folders/_0/fbrtbm_x4pbf1b72ynjm3v580000gn/T//ccbodRiF.s:5238   .debug_str:00000000000007d7 .LASF97
/var/folders/_0/fbrtbm_x4pbf1b72ynjm3v580000gn/T//ccbodRiF.s:5182   .debug_str:00000000000006cb .LASF98
/var/folders/_0/fbrtbm_x4pbf1b72ynjm3v580000gn/T//ccbodRiF.s:5674   .debug_str:0000000000001150 .LASF99
/var/folders/_0/fbrtbm_x4pbf1b72ynjm3v580000gn/T//ccbodRiF.s:5556   .debug_str:0000000000000ef4 .LASF100
/var/folders/_0/fbrtbm_x4pbf1b72ynjm3v580000gn/T//ccbodRiF.s:5496   .debug_str:0000000000000ddd .LASF101
/var/folders/_0/fbrtbm_x4pbf1b72ynjm3v580000gn/T//ccbodRiF.s:5070   .debug_str:0000000000000444 .LASF102
/var/folders/_0/fbrtbm_x4pbf1b72ynjm3v580000gn/T//ccbodRiF.s:5384   .debug_str:0000000000000b2c .LASF103
/var/folders/_0/fbrtbm_x4pbf1b72ynjm3v580000gn/T//ccbodRiF.s:5122   .debug_str:0000000000000587 .LASF104
/var/folders/_0/fbrtbm_x4pbf1b72ynjm3v580000gn/T//ccbodRiF.s:5126   .debug_str:0000000000000595 .LASF105
/var/folders/_0/fbrtbm_x4pbf1b72ynjm3v580000gn/T//ccbodRiF.s:5486   .debug_str:0000000000000db7 .LASF106
/var/folders/_0/fbrtbm_x4pbf1b72ynjm3v580000gn/T//ccbodRiF.s:4984   .debug_str:00000000000001d8 .LASF107
/var/folders/_0/fbrtbm_x4pbf1b72ynjm3v580000gn/T//ccbodRiF.s:5144   .debug_str:00000000000005f0 .LASF108
/var/folders/_0/fbrtbm_x4pbf1b72ynjm3v580000gn/T//ccbodRiF.s:5286   .debug_str:00000000000008e9 .LASF109
/var/folders/_0/fbrtbm_x4pbf1b72ynjm3v580000gn/T//ccbodRiF.s:5166   .debug_str:0000000000000671 .LASF110
/var/folders/_0/fbrtbm_x4pbf1b72ynjm3v580000gn/T//ccbodRiF.s:5710   .debug_str:000000000000122e .LASF111
/var/folders/_0/fbrtbm_x4pbf1b72ynjm3v580000gn/T//ccbodRiF.s:4958   .debug_str:0000000000000159 .LASF112
/var/folders/_0/fbrtbm_x4pbf1b72ynjm3v580000gn/T//ccbodRiF.s:5176   .debug_str:00000000000006ae .LASF113
/var/folders/_0/fbrtbm_x4pbf1b72ynjm3v580000gn/T//ccbodRiF.s:5178   .debug_str:00000000000006b9 .LASF114
/var/folders/_0/fbrtbm_x4pbf1b72ynjm3v580000gn/T//ccbodRiF.s:5596   .debug_str:0000000000000fb7 .LASF115
/var/folders/_0/fbrtbm_x4pbf1b72ynjm3v580000gn/T//ccbodRiF.s:5130   .debug_str:00000000000005a9 .LASF116
/var/folders/_0/fbrtbm_x4pbf1b72ynjm3v580000gn/T//ccbodRiF.s:5042   .debug_str:000000000000039f .LASF117
/var/folders/_0/fbrtbm_x4pbf1b72ynjm3v580000gn/T//ccbodRiF.s:4926   .debug_str:0000000000000090 .LASF118
/var/folders/_0/fbrtbm_x4pbf1b72ynjm3v580000gn/T//ccbodRiF.s:5494   .debug_str:0000000000000dd5 .LASF119
/var/folders/_0/fbrtbm_x4pbf1b72ynjm3v580000gn/T//ccbodRiF.s:5044   .debug_str:00000000000003a7 .LASF120
/var/folders/_0/fbrtbm_x4pbf1b72ynjm3v580000gn/T//ccbodRiF.s:5450   .debug_str:0000000000000ceb .LASF121
/var/folders/_0/fbrtbm_x4pbf1b72ynjm3v580000gn/T//ccbodRiF.s:5226   .debug_str:000000000000078a .LASF122
/var/folders/_0/fbrtbm_x4pbf1b72ynjm3v580000gn/T//ccbodRiF.s:5716   .debug_str:000000000000124c .LASF123
/var/folders/_0/fbrtbm_x4pbf1b72ynjm3v580000gn/T//ccbodRiF.s:5590   .debug_str:0000000000000f9d .LASF124
/var/folders/_0/fbrtbm_x4pbf1b72ynjm3v580000gn/T//ccbodRiF.s:5598   .debug_str:0000000000000fbf .LASF125
/var/folders/_0/fbrtbm_x4pbf1b72ynjm3v580000gn/T//ccbodRiF.s:5140   .debug_str:00000000000005de .LASF126
/var/folders/_0/fbrtbm_x4pbf1b72ynjm3v580000gn/T//ccbodRiF.s:4950   .debug_str:0000000000000122 .LASF127
GAS LISTING /var/folders/_0/fbrtbm_x4pbf1b72ynjm3v580000gn/T//ccbodRiF.s 			page 8


/var/folders/_0/fbrtbm_x4pbf1b72ynjm3v580000gn/T//ccbodRiF.s:5074   .debug_str:0000000000000458 .LASF128
/var/folders/_0/fbrtbm_x4pbf1b72ynjm3v580000gn/T//ccbodRiF.s:5116   .debug_str:000000000000056d .LASF129
/var/folders/_0/fbrtbm_x4pbf1b72ynjm3v580000gn/T//ccbodRiF.s:5424   .debug_str:0000000000000c1b .LASF130
/var/folders/_0/fbrtbm_x4pbf1b72ynjm3v580000gn/T//ccbodRiF.s:5280   .debug_str:00000000000008cd .LASF131
/var/folders/_0/fbrtbm_x4pbf1b72ynjm3v580000gn/T//ccbodRiF.s:5082   .debug_str:000000000000048f .LASF132
/var/folders/_0/fbrtbm_x4pbf1b72ynjm3v580000gn/T//ccbodRiF.s:5186   .debug_str:00000000000006db .LASF133
/var/folders/_0/fbrtbm_x4pbf1b72ynjm3v580000gn/T//ccbodRiF.s:5344   .debug_str:0000000000000a25 .LASF134
/var/folders/_0/fbrtbm_x4pbf1b72ynjm3v580000gn/T//ccbodRiF.s:5582   .debug_str:0000000000000f70 .LASF135
/var/folders/_0/fbrtbm_x4pbf1b72ynjm3v580000gn/T//ccbodRiF.s:5060   .debug_str:00000000000003f4 .LASF136
/var/folders/_0/fbrtbm_x4pbf1b72ynjm3v580000gn/T//ccbodRiF.s:5190   .debug_str:00000000000006ef .LASF145
/var/folders/_0/fbrtbm_x4pbf1b72ynjm3v580000gn/T//ccbodRiF.s:5052   .debug_str:00000000000003d4 .LASF137
/var/folders/_0/fbrtbm_x4pbf1b72ynjm3v580000gn/T//ccbodRiF.s:5564   .debug_str:0000000000000f16 .LASF138
/var/folders/_0/fbrtbm_x4pbf1b72ynjm3v580000gn/T//ccbodRiF.s:5558   .debug_str:0000000000000efd .LASF139
/var/folders/_0/fbrtbm_x4pbf1b72ynjm3v580000gn/T//ccbodRiF.s:5270   .debug_str:000000000000089a .LASF140
/var/folders/_0/fbrtbm_x4pbf1b72ynjm3v580000gn/T//ccbodRiF.s:5018   .debug_str:000000000000031c .LASF141
/var/folders/_0/fbrtbm_x4pbf1b72ynjm3v580000gn/T//ccbodRiF.s:5454   .debug_str:0000000000000cfc .LASF142
/var/folders/_0/fbrtbm_x4pbf1b72ynjm3v580000gn/T//ccbodRiF.s:5554   .debug_str:0000000000000eea .LASF144
/var/folders/_0/fbrtbm_x4pbf1b72ynjm3v580000gn/T//ccbodRiF.s:5198   .debug_str:000000000000070e .LASF146
/var/folders/_0/fbrtbm_x4pbf1b72ynjm3v580000gn/T//ccbodRiF.s:5114   .debug_str:000000000000055f .LASF147
/var/folders/_0/fbrtbm_x4pbf1b72ynjm3v580000gn/T//ccbodRiF.s:5406   .debug_str:0000000000000ba0 .LASF148
/var/folders/_0/fbrtbm_x4pbf1b72ynjm3v580000gn/T//ccbodRiF.s:5124   .debug_str:000000000000058e .LASF149
/var/folders/_0/fbrtbm_x4pbf1b72ynjm3v580000gn/T//ccbodRiF.s:5478   .debug_str:0000000000000d93 .LASF150
/var/folders/_0/fbrtbm_x4pbf1b72ynjm3v580000gn/T//ccbodRiF.s:5200   .debug_str:0000000000000717 .LASF151
/var/folders/_0/fbrtbm_x4pbf1b72ynjm3v580000gn/T//ccbodRiF.s:5292   .debug_str:0000000000000905 .LASF152
/var/folders/_0/fbrtbm_x4pbf1b72ynjm3v580000gn/T//ccbodRiF.s:5416   .debug_str:0000000000000bcc .LASF153
/var/folders/_0/fbrtbm_x4pbf1b72ynjm3v580000gn/T//ccbodRiF.s:5472   .debug_str:0000000000000d66 .LASF154
/var/folders/_0/fbrtbm_x4pbf1b72ynjm3v580000gn/T//ccbodRiF.s:5234   .debug_str:00000000000007b8 .LASF155
/var/folders/_0/fbrtbm_x4pbf1b72ynjm3v580000gn/T//ccbodRiF.s:5174   .debug_str:000000000000069e .LASF156
/var/folders/_0/fbrtbm_x4pbf1b72ynjm3v580000gn/T//ccbodRiF.s:5500   .debug_str:0000000000000de9 .LASF157
/var/folders/_0/fbrtbm_x4pbf1b72ynjm3v580000gn/T//ccbodRiF.s:5142   .debug_str:00000000000005e9 .LASF158
/var/folders/_0/fbrtbm_x4pbf1b72ynjm3v580000gn/T//ccbodRiF.s:5014   .debug_str:000000000000030b .LASF159
/var/folders/_0/fbrtbm_x4pbf1b72ynjm3v580000gn/T//ccbodRiF.s:5560   .debug_str:0000000000000f02 .LASF160
/var/folders/_0/fbrtbm_x4pbf1b72ynjm3v580000gn/T//ccbodRiF.s:4944   .debug_str:00000000000000fd .LASF161
/var/folders/_0/fbrtbm_x4pbf1b72ynjm3v580000gn/T//ccbodRiF.s:5040   .debug_str:000000000000038f .LASF162
/var/folders/_0/fbrtbm_x4pbf1b72ynjm3v580000gn/T//ccbodRiF.s:5248   .debug_str:0000000000000817 .LASF163
/var/folders/_0/fbrtbm_x4pbf1b72ynjm3v580000gn/T//ccbodRiF.s:5510   .debug_str:0000000000000e27 .LASF164
/var/folders/_0/fbrtbm_x4pbf1b72ynjm3v580000gn/T//ccbodRiF.s:5502   .debug_str:0000000000000df7 .LASF165
/var/folders/_0/fbrtbm_x4pbf1b72ynjm3v580000gn/T//ccbodRiF.s:5110   .debug_str:0000000000000547 .LASF166
/var/folders/_0/fbrtbm_x4pbf1b72ynjm3v580000gn/T//ccbodRiF.s:5354   .debug_str:0000000000000a6b .LASF167
/var/folders/_0/fbrtbm_x4pbf1b72ynjm3v580000gn/T//ccbodRiF.s:4904   .debug_str:0000000000000000 .LASF168
/var/folders/_0/fbrtbm_x4pbf1b72ynjm3v580000gn/T//ccbodRiF.s:5250   .debug_str:0000000000000827 .LASF169
/var/folders/_0/fbrtbm_x4pbf1b72ynjm3v580000gn/T//ccbodRiF.s:5246   .debug_str:0000000000000801 .LASF170
/var/folders/_0/fbrtbm_x4pbf1b72ynjm3v580000gn/T//ccbodRiF.s:5334   .debug_str:00000000000009e4 .LASF171
/var/folders/_0/fbrtbm_x4pbf1b72ynjm3v580000gn/T//ccbodRiF.s:5158   .debug_str:000000000000064b .LASF172
/var/folders/_0/fbrtbm_x4pbf1b72ynjm3v580000gn/T//ccbodRiF.s:5438   .debug_str:0000000000000c77 .LASF173
/var/folders/_0/fbrtbm_x4pbf1b72ynjm3v580000gn/T//ccbodRiF.s:5374   .debug_str:0000000000000ae1 .LASF174
/var/folders/_0/fbrtbm_x4pbf1b72ynjm3v580000gn/T//ccbodRiF.s:5380   .debug_str:0000000000000b09 .LASF175
/var/folders/_0/fbrtbm_x4pbf1b72ynjm3v580000gn/T//ccbodRiF.s:5402   .debug_str:0000000000000b86 .LASF176
/var/folders/_0/fbrtbm_x4pbf1b72ynjm3v580000gn/T//ccbodRiF.s:5298   .debug_str:0000000000000920 .LASF177
/var/folders/_0/fbrtbm_x4pbf1b72ynjm3v580000gn/T//ccbodRiF.s:5646   .debug_str:00000000000010df .LASF178
/var/folders/_0/fbrtbm_x4pbf1b72ynjm3v580000gn/T//ccbodRiF.s:5276   .debug_str:00000000000008b1 .LASF179
/var/folders/_0/fbrtbm_x4pbf1b72ynjm3v580000gn/T//ccbodRiF.s:5108   .debug_str:0000000000000539 .LASF180
/var/folders/_0/fbrtbm_x4pbf1b72ynjm3v580000gn/T//ccbodRiF.s:5572   .debug_str:0000000000000f38 .LASF181
/var/folders/_0/fbrtbm_x4pbf1b72ynjm3v580000gn/T//ccbodRiF.s:4908   .debug_str:0000000000000015 .LASF182
/var/folders/_0/fbrtbm_x4pbf1b72ynjm3v580000gn/T//ccbodRiF.s:5264   .debug_str:0000000000000873 .LASF183
/var/folders/_0/fbrtbm_x4pbf1b72ynjm3v580000gn/T//ccbodRiF.s:5378   .debug_str:0000000000000af9 .LASF184
/var/folders/_0/fbrtbm_x4pbf1b72ynjm3v580000gn/T//ccbodRiF.s:5548   .debug_str:0000000000000ecb .LASF185
GAS LISTING /var/folders/_0/fbrtbm_x4pbf1b72ynjm3v580000gn/T//ccbodRiF.s 			page 9


/var/folders/_0/fbrtbm_x4pbf1b72ynjm3v580000gn/T//ccbodRiF.s:5084   .debug_str:0000000000000497 .LASF186
/var/folders/_0/fbrtbm_x4pbf1b72ynjm3v580000gn/T//ccbodRiF.s:5526   .debug_str:0000000000000e74 .LASF187
/var/folders/_0/fbrtbm_x4pbf1b72ynjm3v580000gn/T//ccbodRiF.s:4912   .debug_str:0000000000000035 .LASF188
/var/folders/_0/fbrtbm_x4pbf1b72ynjm3v580000gn/T//ccbodRiF.s:5612   .debug_str:000000000000100e .LASF189
/var/folders/_0/fbrtbm_x4pbf1b72ynjm3v580000gn/T//ccbodRiF.s:4918   .debug_str:0000000000000064 .LASF190
/var/folders/_0/fbrtbm_x4pbf1b72ynjm3v580000gn/T//ccbodRiF.s:5340   .debug_str:0000000000000a07 .LASF191
/var/folders/_0/fbrtbm_x4pbf1b72ynjm3v580000gn/T//ccbodRiF.s:5058   .debug_str:00000000000003ea .LASF192
/var/folders/_0/fbrtbm_x4pbf1b72ynjm3v580000gn/T//ccbodRiF.s:5240   .debug_str:00000000000007de .LASF193
/var/folders/_0/fbrtbm_x4pbf1b72ynjm3v580000gn/T//ccbodRiF.s:5676   .debug_str:0000000000001158 .LASF194
/var/folders/_0/fbrtbm_x4pbf1b72ynjm3v580000gn/T//ccbodRiF.s:5282   .debug_str:00000000000008d6 .LASF195
/var/folders/_0/fbrtbm_x4pbf1b72ynjm3v580000gn/T//ccbodRiF.s:5576   .debug_str:0000000000000f56 .LASF196
/var/folders/_0/fbrtbm_x4pbf1b72ynjm3v580000gn/T//ccbodRiF.s:5068   .debug_str:000000000000043d .LASF197
/var/folders/_0/fbrtbm_x4pbf1b72ynjm3v580000gn/T//ccbodRiF.s:4910   .debug_str:0000000000000027 .LASF198
/var/folders/_0/fbrtbm_x4pbf1b72ynjm3v580000gn/T//ccbodRiF.s:5386   .debug_str:0000000000000b35 .LASF199
/var/folders/_0/fbrtbm_x4pbf1b72ynjm3v580000gn/T//ccbodRiF.s:5584   .debug_str:0000000000000f7c .LASF200
/var/folders/_0/fbrtbm_x4pbf1b72ynjm3v580000gn/T//ccbodRiF.s:5600   .debug_str:0000000000000fc7 .LASF201
/var/folders/_0/fbrtbm_x4pbf1b72ynjm3v580000gn/T//ccbodRiF.s:5426   .debug_str:0000000000000c26 .LASF202
/var/folders/_0/fbrtbm_x4pbf1b72ynjm3v580000gn/T//ccbodRiF.s:5464   .debug_str:0000000000000d2b .LASF203
/var/folders/_0/fbrtbm_x4pbf1b72ynjm3v580000gn/T//ccbodRiF.s:5520   .debug_str:0000000000000e51 .LASF204
/var/folders/_0/fbrtbm_x4pbf1b72ynjm3v580000gn/T//ccbodRiF.s:4964   .debug_str:0000000000000170 .LASF205
/var/folders/_0/fbrtbm_x4pbf1b72ynjm3v580000gn/T//ccbodRiF.s:5568   .debug_str:0000000000000f25 .LASF206
/var/folders/_0/fbrtbm_x4pbf1b72ynjm3v580000gn/T//ccbodRiF.s:5038   .debug_str:0000000000000387 .LASF207
/var/folders/_0/fbrtbm_x4pbf1b72ynjm3v580000gn/T//ccbodRiF.s:5442   .debug_str:0000000000000c8c .LASF208
/var/folders/_0/fbrtbm_x4pbf1b72ynjm3v580000gn/T//ccbodRiF.s:4924   .debug_str:0000000000000088 .LASF209
/var/folders/_0/fbrtbm_x4pbf1b72ynjm3v580000gn/T//ccbodRiF.s:5326   .debug_str:00000000000009ad .LASF210
/var/folders/_0/fbrtbm_x4pbf1b72ynjm3v580000gn/T//ccbodRiF.s:5570   .debug_str:0000000000000f2e .LASF211
/var/folders/_0/fbrtbm_x4pbf1b72ynjm3v580000gn/T//ccbodRiF.s:5636   .debug_str:00000000000010a9 .LASF212
/var/folders/_0/fbrtbm_x4pbf1b72ynjm3v580000gn/T//ccbodRiF.s:5024   .debug_str:000000000000033e .LASF213
/var/folders/_0/fbrtbm_x4pbf1b72ynjm3v580000gn/T//ccbodRiF.s:5118   .debug_str:0000000000000579 .LASF214
/var/folders/_0/fbrtbm_x4pbf1b72ynjm3v580000gn/T//ccbodRiF.s:5338   .debug_str:00000000000009fa .LASF215
/var/folders/_0/fbrtbm_x4pbf1b72ynjm3v580000gn/T//ccbodRiF.s:5412   .debug_str:0000000000000bb8 .LASF216
/var/folders/_0/fbrtbm_x4pbf1b72ynjm3v580000gn/T//ccbodRiF.s:5300   .debug_str:000000000000092d .LASF217
/var/folders/_0/fbrtbm_x4pbf1b72ynjm3v580000gn/T//ccbodRiF.s:4906   .debug_str:0000000000000009 .LASF218
/var/folders/_0/fbrtbm_x4pbf1b72ynjm3v580000gn/T//ccbodRiF.s:5566   .debug_str:0000000000000f1d .LASF219
/var/folders/_0/fbrtbm_x4pbf1b72ynjm3v580000gn/T//ccbodRiF.s:4930   .debug_str:00000000000000a1 .LASF220
/var/folders/_0/fbrtbm_x4pbf1b72ynjm3v580000gn/T//ccbodRiF.s:5468   .debug_str:0000000000000d43 .LASF221
/var/folders/_0/fbrtbm_x4pbf1b72ynjm3v580000gn/T//ccbodRiF.s:5152   .debug_str:0000000000000629 .LASF222
/var/folders/_0/fbrtbm_x4pbf1b72ynjm3v580000gn/T//ccbodRiF.s:5260   .debug_str:0000000000000860 .LASF223
/var/folders/_0/fbrtbm_x4pbf1b72ynjm3v580000gn/T//ccbodRiF.s:5004   .debug_str:000000000000025a .LASF224
/var/folders/_0/fbrtbm_x4pbf1b72ynjm3v580000gn/T//ccbodRiF.s:5376   .debug_str:0000000000000af0 .LASF225
/var/folders/_0/fbrtbm_x4pbf1b72ynjm3v580000gn/T//ccbodRiF.s:5262   .debug_str:0000000000000868 .LASF226
/var/folders/_0/fbrtbm_x4pbf1b72ynjm3v580000gn/T//ccbodRiF.s:5138   .debug_str:00000000000005d3 .LASF227
/var/folders/_0/fbrtbm_x4pbf1b72ynjm3v580000gn/T//ccbodRiF.s:4996   .debug_str:000000000000023c .LASF228
/var/folders/_0/fbrtbm_x4pbf1b72ynjm3v580000gn/T//ccbodRiF.s:5202   .debug_str:000000000000071f .LASF229
/var/folders/_0/fbrtbm_x4pbf1b72ynjm3v580000gn/T//ccbodRiF.s:5718   .debug_str:0000000000001257 .LASF230
/var/folders/_0/fbrtbm_x4pbf1b72ynjm3v580000gn/T//ccbodRiF.s:5682   .debug_str:000000000000117f .LASF231
/var/folders/_0/fbrtbm_x4pbf1b72ynjm3v580000gn/T//ccbodRiF.s:5538   .debug_str:0000000000000eab .LASF232
/var/folders/_0/fbrtbm_x4pbf1b72ynjm3v580000gn/T//ccbodRiF.s:5530   .debug_str:0000000000000e84 .LASF233
/var/folders/_0/fbrtbm_x4pbf1b72ynjm3v580000gn/T//ccbodRiF.s:5480   .debug_str:0000000000000d9a .LASF234
/var/folders/_0/fbrtbm_x4pbf1b72ynjm3v580000gn/T//ccbodRiF.s:5080   .debug_str:0000000000000485 .LASF235
/var/folders/_0/fbrtbm_x4pbf1b72ynjm3v580000gn/T//ccbodRiF.s:5550   .debug_str:0000000000000ede .LASF236
/var/folders/_0/fbrtbm_x4pbf1b72ynjm3v580000gn/T//ccbodRiF.s:5180   .debug_str:00000000000006c4 .LASF237
/var/folders/_0/fbrtbm_x4pbf1b72ynjm3v580000gn/T//ccbodRiF.s:5030   .debug_str:0000000000000364 .LASF238
/var/folders/_0/fbrtbm_x4pbf1b72ynjm3v580000gn/T//ccbodRiF.s:5020   .debug_str:0000000000000326 .LASF239
/var/folders/_0/fbrtbm_x4pbf1b72ynjm3v580000gn/T//ccbodRiF.s:5136   .debug_str:00000000000005ca .LASF240
/var/folders/_0/fbrtbm_x4pbf1b72ynjm3v580000gn/T//ccbodRiF.s:5156   .debug_str:0000000000000638 .LASF241
/var/folders/_0/fbrtbm_x4pbf1b72ynjm3v580000gn/T//ccbodRiF.s:5388   .debug_str:0000000000000b3d .LASF242
GAS LISTING /var/folders/_0/fbrtbm_x4pbf1b72ynjm3v580000gn/T//ccbodRiF.s 			page 10


/var/folders/_0/fbrtbm_x4pbf1b72ynjm3v580000gn/T//ccbodRiF.s:5522   .debug_str:0000000000000e5a .LASF243
/var/folders/_0/fbrtbm_x4pbf1b72ynjm3v580000gn/T//ccbodRiF.s:5206   .debug_str:0000000000000734 .LASF244
/var/folders/_0/fbrtbm_x4pbf1b72ynjm3v580000gn/T//ccbodRiF.s:4998   .debug_str:0000000000000245 .LASF245
/var/folders/_0/fbrtbm_x4pbf1b72ynjm3v580000gn/T//ccbodRiF.s:5364   .debug_str:0000000000000aa7 .LASF246
/var/folders/_0/fbrtbm_x4pbf1b72ynjm3v580000gn/T//ccbodRiF.s:5372   .debug_str:0000000000000ad6 .LASF247
/var/folders/_0/fbrtbm_x4pbf1b72ynjm3v580000gn/T//ccbodRiF.s:5476   .debug_str:0000000000000d85 .LASF248
/var/folders/_0/fbrtbm_x4pbf1b72ynjm3v580000gn/T//ccbodRiF.s:5506   .debug_str:0000000000000e0e .LASF249
/var/folders/_0/fbrtbm_x4pbf1b72ynjm3v580000gn/T//ccbodRiF.s:5516   .debug_str:0000000000000e3f .LASF250
/var/folders/_0/fbrtbm_x4pbf1b72ynjm3v580000gn/T//ccbodRiF.s:5528   .debug_str:0000000000000e7f .LASF251
/var/folders/_0/fbrtbm_x4pbf1b72ynjm3v580000gn/T//ccbodRiF.s:5360   .debug_str:0000000000000a85 .LASF252
/var/folders/_0/fbrtbm_x4pbf1b72ynjm3v580000gn/T//ccbodRiF.s:5390   .debug_str:0000000000000b51 .LASF253
/var/folders/_0/fbrtbm_x4pbf1b72ynjm3v580000gn/T//ccbodRiF.s:5588   .debug_str:0000000000000f90 .LASF254
/var/folders/_0/fbrtbm_x4pbf1b72ynjm3v580000gn/T//ccbodRiF.s:5022   .debug_str:000000000000032e .LASF255
/var/folders/_0/fbrtbm_x4pbf1b72ynjm3v580000gn/T//ccbodRiF.s:5540   .debug_str:0000000000000eb0 .LASF256
/var/folders/_0/fbrtbm_x4pbf1b72ynjm3v580000gn/T//ccbodRiF.s:5670   .debug_str:0000000000001144 .LASF257
/var/folders/_0/fbrtbm_x4pbf1b72ynjm3v580000gn/T//ccbodRiF.s:5458   .debug_str:0000000000000d12 .LASF258
/var/folders/_0/fbrtbm_x4pbf1b72ynjm3v580000gn/T//ccbodRiF.s:4916   .debug_str:000000000000005b .LASF259
/var/folders/_0/fbrtbm_x4pbf1b72ynjm3v580000gn/T//ccbodRiF.s:5036   .debug_str:0000000000000381 .LASF260
/var/folders/_0/fbrtbm_x4pbf1b72ynjm3v580000gn/T//ccbodRiF.s:5460   .debug_str:0000000000000d1a .LASF261
/var/folders/_0/fbrtbm_x4pbf1b72ynjm3v580000gn/T//ccbodRiF.s:5418   .debug_str:0000000000000bdd .LASF262
/var/folders/_0/fbrtbm_x4pbf1b72ynjm3v580000gn/T//ccbodRiF.s:4922   .debug_str:0000000000000080 .LASF263
/var/folders/_0/fbrtbm_x4pbf1b72ynjm3v580000gn/T//ccbodRiF.s:5524   .debug_str:0000000000000e69 .LASF264
/var/folders/_0/fbrtbm_x4pbf1b72ynjm3v580000gn/T//ccbodRiF.s:5632   .debug_str:0000000000001098 .LASF265
/var/folders/_0/fbrtbm_x4pbf1b72ynjm3v580000gn/T//ccbodRiF.s:5268   .debug_str:0000000000000888 .LASF266
/var/folders/_0/fbrtbm_x4pbf1b72ynjm3v580000gn/T//ccbodRiF.s:5514   .debug_str:0000000000000e36 .LASF267
/var/folders/_0/fbrtbm_x4pbf1b72ynjm3v580000gn/T//ccbodRiF.s:5284   .debug_str:00000000000008e1 .LASF268
/var/folders/_0/fbrtbm_x4pbf1b72ynjm3v580000gn/T//ccbodRiF.s:5542   .debug_str:0000000000000eb7 .LASF269
/var/folders/_0/fbrtbm_x4pbf1b72ynjm3v580000gn/T//ccbodRiF.s:5288   .debug_str:00000000000008f3 .LASF270
/var/folders/_0/fbrtbm_x4pbf1b72ynjm3v580000gn/T//ccbodRiF.s:5358   .debug_str:0000000000000a7f .LASF271
/var/folders/_0/fbrtbm_x4pbf1b72ynjm3v580000gn/T//ccbodRiF.s:5196   .debug_str:0000000000000709 .LASF272
/var/folders/_0/fbrtbm_x4pbf1b72ynjm3v580000gn/T//ccbodRiF.s:4962   .debug_str:000000000000016b .LASF273
/var/folders/_0/fbrtbm_x4pbf1b72ynjm3v580000gn/T//ccbodRiF.s:4968   .debug_str:0000000000000182 .LASF274
/var/folders/_0/fbrtbm_x4pbf1b72ynjm3v580000gn/T//ccbodRiF.s:5712   .debug_str:0000000000001236 .LASF275
/var/folders/_0/fbrtbm_x4pbf1b72ynjm3v580000gn/T//ccbodRiF.s:5680   .debug_str:0000000000001175 .LASF276
/var/folders/_0/fbrtbm_x4pbf1b72ynjm3v580000gn/T//ccbodRiF.s:5230   .debug_str:000000000000079d .LASF277
/var/folders/_0/fbrtbm_x4pbf1b72ynjm3v580000gn/T//ccbodRiF.s:5076   .debug_str:0000000000000460 .LASF278
/var/folders/_0/fbrtbm_x4pbf1b72ynjm3v580000gn/T//ccbodRiF.s:5592   .debug_str:0000000000000fa4 .LASF279
/var/folders/_0/fbrtbm_x4pbf1b72ynjm3v580000gn/T//ccbodRiF.s:5430   .debug_str:0000000000000c46 .LASF280
/var/folders/_0/fbrtbm_x4pbf1b72ynjm3v580000gn/T//ccbodRiF.s:5436   .debug_str:0000000000000c6d .LASF281
/var/folders/_0/fbrtbm_x4pbf1b72ynjm3v580000gn/T//ccbodRiF.s:5702   .debug_str:00000000000011fc .LASF282
/var/folders/_0/fbrtbm_x4pbf1b72ynjm3v580000gn/T//ccbodRiF.s:5034   .debug_str:0000000000000373 .LASF283
/var/folders/_0/fbrtbm_x4pbf1b72ynjm3v580000gn/T//ccbodRiF.s:5000   .debug_str:000000000000024c .LASF284
/var/folders/_0/fbrtbm_x4pbf1b72ynjm3v580000gn/T//ccbodRiF.s:5484   .debug_str:0000000000000dab .LASF285
/var/folders/_0/fbrtbm_x4pbf1b72ynjm3v580000gn/T//ccbodRiF.s:5586   .debug_str:0000000000000f87 .LASF286
/var/folders/_0/fbrtbm_x4pbf1b72ynjm3v580000gn/T//ccbodRiF.s:5616   .debug_str:0000000000001022 .LASF287
/var/folders/_0/fbrtbm_x4pbf1b72ynjm3v580000gn/T//ccbodRiF.s:5410   .debug_str:0000000000000bb0 .LASF288
/var/folders/_0/fbrtbm_x4pbf1b72ynjm3v580000gn/T//ccbodRiF.s:5610   .debug_str:0000000000001009 .LASF289
/var/folders/_0/fbrtbm_x4pbf1b72ynjm3v580000gn/T//ccbodRiF.s:5160   .debug_str:000000000000065c .LASF290
/var/folders/_0/fbrtbm_x4pbf1b72ynjm3v580000gn/T//ccbodRiF.s:5614   .debug_str:000000000000101b .LASF291
/var/folders/_0/fbrtbm_x4pbf1b72ynjm3v580000gn/T//ccbodRiF.s:5512   .debug_str:0000000000000e30 .LASF292
/var/folders/_0/fbrtbm_x4pbf1b72ynjm3v580000gn/T//ccbodRiF.s:5056   .debug_str:00000000000003e4 .LASF293
/var/folders/_0/fbrtbm_x4pbf1b72ynjm3v580000gn/T//ccbodRiF.s:5252   .debug_str:0000000000000835 .LASF294
/var/folders/_0/fbrtbm_x4pbf1b72ynjm3v580000gn/T//ccbodRiF.s:5408   .debug_str:0000000000000ba9 .LASF295
/var/folders/_0/fbrtbm_x4pbf1b72ynjm3v580000gn/T//ccbodRiF.s:5032   .debug_str:000000000000036d .LASF296
/var/folders/_0/fbrtbm_x4pbf1b72ynjm3v580000gn/T//ccbodRiF.s:5606   .debug_str:0000000000000ffb .LASF297
/var/folders/_0/fbrtbm_x4pbf1b72ynjm3v580000gn/T//ccbodRiF.s:5192   .debug_str:00000000000006f9 .LASF298
/var/folders/_0/fbrtbm_x4pbf1b72ynjm3v580000gn/T//ccbodRiF.s:4932   .debug_str:00000000000000a9 .LASF299
GAS LISTING /var/folders/_0/fbrtbm_x4pbf1b72ynjm3v580000gn/T//ccbodRiF.s 			page 11


/var/folders/_0/fbrtbm_x4pbf1b72ynjm3v580000gn/T//ccbodRiF.s:4940   .debug_str:00000000000000ea .LASF300
/var/folders/_0/fbrtbm_x4pbf1b72ynjm3v580000gn/T//ccbodRiF.s:5452   .debug_str:0000000000000cf6 .LASF301
/var/folders/_0/fbrtbm_x4pbf1b72ynjm3v580000gn/T//ccbodRiF.s:5162   .debug_str:0000000000000661 .LASF302
/var/folders/_0/fbrtbm_x4pbf1b72ynjm3v580000gn/T//ccbodRiF.s:5394   .debug_str:0000000000000b61 .LASF303
/var/folders/_0/fbrtbm_x4pbf1b72ynjm3v580000gn/T//ccbodRiF.s:4966   .debug_str:000000000000017c .LASF304
/var/folders/_0/fbrtbm_x4pbf1b72ynjm3v580000gn/T//ccbodRiF.s:5492   .debug_str:0000000000000dcc .LASF305
/var/folders/_0/fbrtbm_x4pbf1b72ynjm3v580000gn/T//ccbodRiF.s:5456   .debug_str:0000000000000d0a .LASF306
/var/folders/_0/fbrtbm_x4pbf1b72ynjm3v580000gn/T//ccbodRiF.s:5546   .debug_str:0000000000000ec5 .LASF307
/var/folders/_0/fbrtbm_x4pbf1b72ynjm3v580000gn/T//ccbodRiF.s:5002   .debug_str:0000000000000254 .LASF308
/var/folders/_0/fbrtbm_x4pbf1b72ynjm3v580000gn/T//ccbodRiF.s:5400   .debug_str:0000000000000b7d .LASF309
/var/folders/_0/fbrtbm_x4pbf1b72ynjm3v580000gn/T//ccbodRiF.s:5256   .debug_str:0000000000000848 .LASF310
/var/folders/_0/fbrtbm_x4pbf1b72ynjm3v580000gn/T//ccbodRiF.s:5010   .debug_str:00000000000002f1 .LASF311
/var/folders/_0/fbrtbm_x4pbf1b72ynjm3v580000gn/T//ccbodRiF.s:5274   .debug_str:00000000000008aa .LASF312
/var/folders/_0/fbrtbm_x4pbf1b72ynjm3v580000gn/T//ccbodRiF.s:5172   .debug_str:0000000000000697 .LASF313
/var/folders/_0/fbrtbm_x4pbf1b72ynjm3v580000gn/T//ccbodRiF.s:5490   .debug_str:0000000000000dc4 .LASF314
/var/folders/_0/fbrtbm_x4pbf1b72ynjm3v580000gn/T//ccbodRiF.s:5396   .debug_str:0000000000000b67 .LASF315
/var/folders/_0/fbrtbm_x4pbf1b72ynjm3v580000gn/T//ccbodRiF.s:5608   .debug_str:0000000000001004 .LASF316
/var/folders/_0/fbrtbm_x4pbf1b72ynjm3v580000gn/T//ccbodRiF.s:5304   .debug_str:0000000000000940 .LASF317
/var/folders/_0/fbrtbm_x4pbf1b72ynjm3v580000gn/T//ccbodRiF.s:5704   .debug_str:0000000000001207 .LASF318
/var/folders/_0/fbrtbm_x4pbf1b72ynjm3v580000gn/T//ccbodRiF.s:5630   .debug_str:0000000000001090 .LASF319
/var/folders/_0/fbrtbm_x4pbf1b72ynjm3v580000gn/T//ccbodRiF.s:5254   .debug_str:000000000000083d .LASF320
/var/folders/_0/fbrtbm_x4pbf1b72ynjm3v580000gn/T//ccbodRiF.s:5294   .debug_str:000000000000090d .LASF321
/var/folders/_0/fbrtbm_x4pbf1b72ynjm3v580000gn/T//ccbodRiF.s:5644   .debug_str:00000000000010d7 .LASF322
/var/folders/_0/fbrtbm_x4pbf1b72ynjm3v580000gn/T//ccbodRiF.s:5054   .debug_str:00000000000003da .LASF323
/var/folders/_0/fbrtbm_x4pbf1b72ynjm3v580000gn/T//ccbodRiF.s:5242   .debug_str:00000000000007ea .LASF324
/var/folders/_0/fbrtbm_x4pbf1b72ynjm3v580000gn/T//ccbodRiF.s:5350   .debug_str:0000000000000a5b .LASF325
/var/folders/_0/fbrtbm_x4pbf1b72ynjm3v580000gn/T//ccbodRiF.s:4948   .debug_str:000000000000011a .LASF326
/var/folders/_0/fbrtbm_x4pbf1b72ynjm3v580000gn/T//ccbodRiF.s:5228   .debug_str:0000000000000795 .LASF327
/var/folders/_0/fbrtbm_x4pbf1b72ynjm3v580000gn/T//ccbodRiF.s:5392   .debug_str:0000000000000b5c .LASF328
/var/folders/_0/fbrtbm_x4pbf1b72ynjm3v580000gn/T//ccbodRiF.s:5296   .debug_str:0000000000000917 .LASF329
/var/folders/_0/fbrtbm_x4pbf1b72ynjm3v580000gn/T//ccbodRiF.s:5204   .debug_str:000000000000072a .LASF330
/var/folders/_0/fbrtbm_x4pbf1b72ynjm3v580000gn/T//ccbodRiF.s:5330   .debug_str:00000000000009c4 .LASF331
/var/folders/_0/fbrtbm_x4pbf1b72ynjm3v580000gn/T//ccbodRiF.s:4928   .debug_str:000000000000009c .LASF332
/var/folders/_0/fbrtbm_x4pbf1b72ynjm3v580000gn/T//ccbodRiF.s:5154   .debug_str:0000000000000633 .LASF333
/var/folders/_0/fbrtbm_x4pbf1b72ynjm3v580000gn/T//ccbodRiF.s:5518   .debug_str:0000000000000e4a .LASF334
/var/folders/_0/fbrtbm_x4pbf1b72ynjm3v580000gn/T//ccbodRiF.s:5356   .debug_str:0000000000000a79 .LASF335
/var/folders/_0/fbrtbm_x4pbf1b72ynjm3v580000gn/T//ccbodRiF.s:5324   .debug_str:00000000000009a6 .LASF336
/var/folders/_0/fbrtbm_x4pbf1b72ynjm3v580000gn/T//ccbodRiF.s:5352   .debug_str:0000000000000a65 .LASF337
/var/folders/_0/fbrtbm_x4pbf1b72ynjm3v580000gn/T//ccbodRiF.s:5488   .debug_str:0000000000000dbc .LASF338
/var/folders/_0/fbrtbm_x4pbf1b72ynjm3v580000gn/T//ccbodRiF.s:5448   .debug_str:0000000000000ce5 .LASF339
/var/folders/_0/fbrtbm_x4pbf1b72ynjm3v580000gn/T//ccbodRiF.s:5008   .debug_str:00000000000002eb .LASF340
/var/folders/_0/fbrtbm_x4pbf1b72ynjm3v580000gn/T//ccbodRiF.s:5672   .debug_str:000000000000114b .LASF341
/var/folders/_0/fbrtbm_x4pbf1b72ynjm3v580000gn/T//ccbodRiF.s:5094   .debug_str:00000000000004cc .LASF342
/var/folders/_0/fbrtbm_x4pbf1b72ynjm3v580000gn/T//ccbodRiF.s:5504   .debug_str:0000000000000e01 .LASF343
/var/folders/_0/fbrtbm_x4pbf1b72ynjm3v580000gn/T//ccbodRiF.s:4946   .debug_str:000000000000010d .LASF344
/var/folders/_0/fbrtbm_x4pbf1b72ynjm3v580000gn/T//ccbodRiF.s:5066   .debug_str:000000000000042e .LASF345
/var/folders/_0/fbrtbm_x4pbf1b72ynjm3v580000gn/T//ccbodRiF.s:5342   .debug_str:0000000000000a16 .LASF346
/var/folders/_0/fbrtbm_x4pbf1b72ynjm3v580000gn/T//ccbodRiF.s:5404   .debug_str:0000000000000b95 .LASF347
/var/folders/_0/fbrtbm_x4pbf1b72ynjm3v580000gn/T//ccbodRiF.s:5532   .debug_str:0000000000000e94 .LASF348
/var/folders/_0/fbrtbm_x4pbf1b72ynjm3v580000gn/T//ccbodRiF.s:5574   .debug_str:0000000000000f49 .LASF349
/var/folders/_0/fbrtbm_x4pbf1b72ynjm3v580000gn/T//ccbodRiF.s:5466   .debug_str:0000000000000d35 .LASF350
/var/folders/_0/fbrtbm_x4pbf1b72ynjm3v580000gn/T//ccbodRiF.s:5398   .debug_str:0000000000000b6f .LASF351
/var/folders/_0/fbrtbm_x4pbf1b72ynjm3v580000gn/T//ccbodRiF.s:5462   .debug_str:0000000000000d21 .LASF352
/var/folders/_0/fbrtbm_x4pbf1b72ynjm3v580000gn/T//ccbodRiF.s:5278   .debug_str:00000000000008c1 .LASF353
/var/folders/_0/fbrtbm_x4pbf1b72ynjm3v580000gn/T//ccbodRiF.s:5714   .debug_str:000000000000123f .LASF354
/var/folders/_0/fbrtbm_x4pbf1b72ynjm3v580000gn/T//ccbodRiF.s:5046   .debug_str:00000000000003b1 .LASF355
/var/folders/_0/fbrtbm_x4pbf1b72ynjm3v580000gn/T//ccbodRiF.s:5508   .debug_str:0000000000000e18 .LASF356
GAS LISTING /var/folders/_0/fbrtbm_x4pbf1b72ynjm3v580000gn/T//ccbodRiF.s 			page 12


/var/folders/_0/fbrtbm_x4pbf1b72ynjm3v580000gn/T//ccbodRiF.s:5688   .debug_str:00000000000011a1 .LASF357
/var/folders/_0/fbrtbm_x4pbf1b72ynjm3v580000gn/T//ccbodRiF.s:5382   .debug_str:0000000000000b1d .LASF358
/var/folders/_0/fbrtbm_x4pbf1b72ynjm3v580000gn/T//ccbodRiF.s:5366   .debug_str:0000000000000ab0 .LASF359
/var/folders/_0/fbrtbm_x4pbf1b72ynjm3v580000gn/T//ccbodRiF.s:5164   .debug_str:0000000000000668 .LASF360
/var/folders/_0/fbrtbm_x4pbf1b72ynjm3v580000gn/T//ccbodRiF.s:5622   .debug_str:0000000000001040 .LASF361
/var/folders/_0/fbrtbm_x4pbf1b72ynjm3v580000gn/T//ccbodRiF.s:5336   .debug_str:00000000000009f1 .LASF362
/var/folders/_0/fbrtbm_x4pbf1b72ynjm3v580000gn/T//ccbodRiF.s:4960   .debug_str:0000000000000163 .LASF363
/var/folders/_0/fbrtbm_x4pbf1b72ynjm3v580000gn/T//ccbodRiF.s:4920   .debug_str:0000000000000075 .LASF407
/var/folders/_0/fbrtbm_x4pbf1b72ynjm3v580000gn/T//ccbodRiF.s:5050   .debug_str:00000000000003c8 .LASF364
/var/folders/_0/fbrtbm_x4pbf1b72ynjm3v580000gn/T//ccbodRiF.s:5422   .debug_str:0000000000000c08 .LASF365
/var/folders/_0/fbrtbm_x4pbf1b72ynjm3v580000gn/T//ccbodRiF.s:5134   .debug_str:00000000000005b7 .LASF366
/var/folders/_0/fbrtbm_x4pbf1b72ynjm3v580000gn/T//ccbodRiF.s:5706   .debug_str:0000000000001220 .LASF367
/var/folders/_0/fbrtbm_x4pbf1b72ynjm3v580000gn/T//ccbodRiF.s:5624   .debug_str:0000000000001047 .LASF368
/var/folders/_0/fbrtbm_x4pbf1b72ynjm3v580000gn/T//ccbodRiF.s:5104   .debug_str:000000000000051a .LASF369
/var/folders/_0/fbrtbm_x4pbf1b72ynjm3v580000gn/T//ccbodRiF.s:5128   .debug_str:000000000000059a .LASF370
/var/folders/_0/fbrtbm_x4pbf1b72ynjm3v580000gn/T//ccbodRiF.s:4986   .debug_str:00000000000001de .LASF371
/var/folders/_0/fbrtbm_x4pbf1b72ynjm3v580000gn/T//ccbodRiF.s:5420   .debug_str:0000000000000be5 .LASF372
/var/folders/_0/fbrtbm_x4pbf1b72ynjm3v580000gn/T//ccbodRiF.s:5628   .debug_str:000000000000107f .LASF373
/var/folders/_0/fbrtbm_x4pbf1b72ynjm3v580000gn/T//ccbodRiF.s:5170   .debug_str:0000000000000686 .LASF374
/var/folders/_0/fbrtbm_x4pbf1b72ynjm3v580000gn/T//ccbodRiF.s:5102   .debug_str:00000000000004f5 .LASF375
/var/folders/_0/fbrtbm_x4pbf1b72ynjm3v580000gn/T//ccbodRiF.s:5064   .debug_str:0000000000000417 .LASF376
/var/folders/_0/fbrtbm_x4pbf1b72ynjm3v580000gn/T//ccbodRiF.s:5602   .debug_str:0000000000000fd1 .LASF377
/var/folders/_0/fbrtbm_x4pbf1b72ynjm3v580000gn/T//ccbodRiF.s:5078   .debug_str:0000000000000469 .LASF378
/var/folders/_0/fbrtbm_x4pbf1b72ynjm3v580000gn/T//ccbodRiF.s:5232   .debug_str:00000000000007a7 .LASF379
/var/folders/_0/fbrtbm_x4pbf1b72ynjm3v580000gn/T//ccbodRiF.s:5012   .debug_str:00000000000002f8 .LASF380
/var/folders/_0/fbrtbm_x4pbf1b72ynjm3v580000gn/T//ccbodRiF.s:4956   .debug_str:000000000000013f .LASF381
/var/folders/_0/fbrtbm_x4pbf1b72ynjm3v580000gn/T//ccbodRiF.s:5150   .debug_str:000000000000060d .LASF382
/var/folders/_0/fbrtbm_x4pbf1b72ynjm3v580000gn/T//ccbodRiF.s:5362   .debug_str:0000000000000a8d .LASF383
/var/folders/_0/fbrtbm_x4pbf1b72ynjm3v580000gn/T//ccbodRiF.s:4914   .debug_str:0000000000000042 .LASF384
/var/folders/_0/fbrtbm_x4pbf1b72ynjm3v580000gn/T//ccbodRiF.s:4934   .debug_str:00000000000000af .LASF385
/var/folders/_0/fbrtbm_x4pbf1b72ynjm3v580000gn/T//ccbodRiF.s:5618   .debug_str:000000000000102a .LASF386
/var/folders/_0/fbrtbm_x4pbf1b72ynjm3v580000gn/T//ccbodRiF.s:5626   .debug_str:000000000000106d .LASF387
/var/folders/_0/fbrtbm_x4pbf1b72ynjm3v580000gn/T//ccbodRiF.s:5062   .debug_str:00000000000003fe .LASF388
/var/folders/_0/fbrtbm_x4pbf1b72ynjm3v580000gn/T//ccbodRiF.s:4942   .debug_str:00000000000000f1 .LASF389
/var/folders/_0/fbrtbm_x4pbf1b72ynjm3v580000gn/T//ccbodRiF.s:5272   .debug_str:00000000000008a0 .LASF390
/var/folders/_0/fbrtbm_x4pbf1b72ynjm3v580000gn/T//ccbodRiF.s:5346   .debug_str:0000000000000a2d .LASF391
/var/folders/_0/fbrtbm_x4pbf1b72ynjm3v580000gn/T//ccbodRiF.s:4988   .debug_str:000000000000020c .LASF392
/var/folders/_0/fbrtbm_x4pbf1b72ynjm3v580000gn/T//ccbodRiF.s:5236   .debug_str:00000000000007c8 .LASF393
/var/folders/_0/fbrtbm_x4pbf1b72ynjm3v580000gn/T//ccbodRiF.s:5328   .debug_str:00000000000009b8 .LASF394
/var/folders/_0/fbrtbm_x4pbf1b72ynjm3v580000gn/T//ccbodRiF.s:5106   .debug_str:0000000000000529 .LASF395
/var/folders/_0/fbrtbm_x4pbf1b72ynjm3v580000gn/T//ccbodRiF.s:5604   .debug_str:0000000000000fe5 .LASF396
/var/folders/_0/fbrtbm_x4pbf1b72ynjm3v580000gn/T//ccbodRiF.s:31     .text.USBFS_WKUP_IRQHandler:0000000000000000 .LFB7
/var/folders/_0/fbrtbm_x4pbf1b72ynjm3v580000gn/T//ccbodRiF.s:84     .text.USBFS_WKUP_IRQHandler:0000000000000056 .LFE7
/var/folders/_0/fbrtbm_x4pbf1b72ynjm3v580000gn/T//ccbodRiF.s:4861   .debug_loc:0000000000000000 .LLST0
/var/folders/_0/fbrtbm_x4pbf1b72ynjm3v580000gn/T//ccbodRiF.s:53     .text.USBFS_WKUP_IRQHandler:000000000000001c .LVL1
/var/folders/_0/fbrtbm_x4pbf1b72ynjm3v580000gn/T//ccbodRiF.s:58     .text.USBFS_WKUP_IRQHandler:000000000000002c .LVL2
/var/folders/_0/fbrtbm_x4pbf1b72ynjm3v580000gn/T//ccbodRiF.s:62     .text.USBFS_WKUP_IRQHandler:0000000000000038 .LVL3
/var/folders/_0/fbrtbm_x4pbf1b72ynjm3v580000gn/T//ccbodRiF.s:66     .text.USBFS_WKUP_IRQHandler:0000000000000044 .LVL4
/var/folders/_0/fbrtbm_x4pbf1b72ynjm3v580000gn/T//ccbodRiF.s:82     .text.USBFS_WKUP_IRQHandler:0000000000000056 .LVL5
/var/folders/_0/fbrtbm_x4pbf1b72ynjm3v580000gn/T//ccbodRiF.s:5428   .debug_str:0000000000000c35 .LASF397
/var/folders/_0/fbrtbm_x4pbf1b72ynjm3v580000gn/T//ccbodRiF.s:14     .text.USBFS_IRQHandler:0000000000000000 .LFB6
/var/folders/_0/fbrtbm_x4pbf1b72ynjm3v580000gn/T//ccbodRiF.s:24     .text.USBFS_IRQHandler:0000000000000010 .LFE6
/var/folders/_0/fbrtbm_x4pbf1b72ynjm3v580000gn/T//ccbodRiF.s:22     .text.USBFS_IRQHandler:0000000000000010 .LVL0
/var/folders/_0/fbrtbm_x4pbf1b72ynjm3v580000gn/T//ccbodRiF.s:5332   .debug_str:00000000000009cc .LASF398
/var/folders/_0/fbrtbm_x4pbf1b72ynjm3v580000gn/T//ccbodRiF.s:5648   .debug_str:00000000000010e9 .LASF399
/var/folders/_0/fbrtbm_x4pbf1b72ynjm3v580000gn/T//ccbodRiF.s:5692   .debug_str:00000000000011b8 .LASF400
/var/folders/_0/fbrtbm_x4pbf1b72ynjm3v580000gn/T//ccbodRiF.s:5432   .debug_str:0000000000000c50 .LASF401
GAS LISTING /var/folders/_0/fbrtbm_x4pbf1b72ynjm3v580000gn/T//ccbodRiF.s 			page 13


/var/folders/_0/fbrtbm_x4pbf1b72ynjm3v580000gn/T//ccbodRiF.s:5470   .debug_str:0000000000000d4c .LASF402
/var/folders/_0/fbrtbm_x4pbf1b72ynjm3v580000gn/T//ccbodRiF.s:5072   .debug_str:000000000000044f .LASF403
/var/folders/_0/fbrtbm_x4pbf1b72ynjm3v580000gn/T//ccbodRiF.s:37     .text.USBFS_WKUP_IRQHandler:0000000000000002 .LCFI0
/var/folders/_0/fbrtbm_x4pbf1b72ynjm3v580000gn/T//ccbodRiF.s:78     .text.USBFS_WKUP_IRQHandler:000000000000004e .LCFI1
/var/folders/_0/fbrtbm_x4pbf1b72ynjm3v580000gn/T//ccbodRiF.s:106    .debug_info:0000000000000000 .Ldebug_info0

UNDEFINED SYMBOLS
USB_OTG_dev
usbd_isr
set_usb_clock_96m_hxtal
usbfs_prescaler
rcu_usb_clock_config
rcu_periph_clock_enable
usb_clock_active
exti_interrupt_flag_clear
