GAS LISTING /var/folders/_0/fbrtbm_x4pbf1b72ynjm3v580000gn/T//cc6hqJ1e.s 			page 1


   1              		.file	"gd32vf103_hw.c"
   2              		.option nopic
   3              		.attribute arch, "rv32i2p0_m2p0_a2p0_c2p0"
   4              		.attribute unaligned_access, 0
   5              		.attribute stack_align, 16
   6              		.text
   7              	.Ltext0:
   8              		.cfi_sections	.debug_frame
   9              		.section	.text.usb_rcu_config,"ax",@progbits
  10              		.align	1
  11              		.globl	usb_rcu_config
  13              	usb_rcu_config:
  14              	.LFB6:
  15              		.file 1 "lib/usbcdc/src/gd32vf103_hw.c"
   1:lib/usbcdc/src/gd32vf103_hw.c **** /*!
   2:lib/usbcdc/src/gd32vf103_hw.c ****     \file  gd32vf103_hw.c
   3:lib/usbcdc/src/gd32vf103_hw.c ****     \brief USB hardware configuration for GD32VF103
   4:lib/usbcdc/src/gd32vf103_hw.c **** 
   5:lib/usbcdc/src/gd32vf103_hw.c ****     \version 2019-6-5, V1.0.0, demo for GD32VF103
   6:lib/usbcdc/src/gd32vf103_hw.c **** */
   7:lib/usbcdc/src/gd32vf103_hw.c **** 
   8:lib/usbcdc/src/gd32vf103_hw.c **** /*
   9:lib/usbcdc/src/gd32vf103_hw.c ****     Copyright (c) 2019, GigaDevice Semiconductor Inc.
  10:lib/usbcdc/src/gd32vf103_hw.c **** 
  11:lib/usbcdc/src/gd32vf103_hw.c ****     Redistribution and use in source and binary forms, with or without modification, 
  12:lib/usbcdc/src/gd32vf103_hw.c **** are permitted provided that the following conditions are met:
  13:lib/usbcdc/src/gd32vf103_hw.c **** 
  14:lib/usbcdc/src/gd32vf103_hw.c ****     1. Redistributions of source code must retain the above copyright notice, this 
  15:lib/usbcdc/src/gd32vf103_hw.c ****        list of conditions and the following disclaimer.
  16:lib/usbcdc/src/gd32vf103_hw.c ****     2. Redistributions in binary form must reproduce the above copyright notice, 
  17:lib/usbcdc/src/gd32vf103_hw.c ****        this list of conditions and the following disclaimer in the documentation 
  18:lib/usbcdc/src/gd32vf103_hw.c ****        and/or other materials provided with the distribution.
  19:lib/usbcdc/src/gd32vf103_hw.c ****     3. Neither the name of the copyright holder nor the names of its contributors 
  20:lib/usbcdc/src/gd32vf103_hw.c ****        may be used to endorse or promote products derived from this software without 
  21:lib/usbcdc/src/gd32vf103_hw.c ****        specific prior written permission.
  22:lib/usbcdc/src/gd32vf103_hw.c **** 
  23:lib/usbcdc/src/gd32vf103_hw.c ****     THIS SOFTWARE IS PROVIDED BY THE COPYRIGHT HOLDERS AND CONTRIBUTORS "AS IS" 
  24:lib/usbcdc/src/gd32vf103_hw.c **** AND ANY EXPRESS OR IMPLIED WARRANTIES, INCLUDING, BUT NOT LIMITED TO, THE IMPLIED 
  25:lib/usbcdc/src/gd32vf103_hw.c **** WARRANTIES OF MERCHANTABILITY AND FITNESS FOR A PARTICULAR PURPOSE ARE DISCLAIMED. 
  26:lib/usbcdc/src/gd32vf103_hw.c **** IN NO EVENT SHALL THE COPYRIGHT HOLDER OR CONTRIBUTORS BE LIABLE FOR ANY DIRECT, 
  27:lib/usbcdc/src/gd32vf103_hw.c **** INDIRECT, INCIDENTAL, SPECIAL, EXEMPLARY, OR CONSEQUENTIAL DAMAGES (INCLUDING, BUT 
  28:lib/usbcdc/src/gd32vf103_hw.c **** NOT LIMITED TO, PROCUREMENT OF SUBSTITUTE GOODS OR SERVICES; LOSS OF USE, DATA, OR 
  29:lib/usbcdc/src/gd32vf103_hw.c **** PROFITS; OR BUSINESS INTERRUPTION) HOWEVER CAUSED AND ON ANY THEORY OF LIABILITY, 
  30:lib/usbcdc/src/gd32vf103_hw.c **** WHETHER IN CONTRACT, STRICT LIABILITY, OR TORT (INCLUDING NEGLIGENCE OR OTHERWISE) 
  31:lib/usbcdc/src/gd32vf103_hw.c **** ARISING IN ANY WAY OUT OF THE USE OF THIS SOFTWARE, EVEN IF ADVISED OF THE POSSIBILITY 
  32:lib/usbcdc/src/gd32vf103_hw.c **** OF SUCH DAMAGE.
  33:lib/usbcdc/src/gd32vf103_hw.c **** */
  34:lib/usbcdc/src/gd32vf103_hw.c **** 
  35:lib/usbcdc/src/gd32vf103_hw.c **** 
  36:lib/usbcdc/src/gd32vf103_hw.c **** #include "drv_usb_hw.h"
  37:lib/usbcdc/src/gd32vf103_hw.c **** #include <stdio.h>
  38:lib/usbcdc/src/gd32vf103_hw.c **** #include <stdlib.h>
  39:lib/usbcdc/src/gd32vf103_hw.c **** #include <string.h>
  40:lib/usbcdc/src/gd32vf103_hw.c **** #include "usb_delay.h"
  41:lib/usbcdc/src/gd32vf103_hw.c **** 
  42:lib/usbcdc/src/gd32vf103_hw.c **** #define TIM_MSEC_DELAY                          0x01
  43:lib/usbcdc/src/gd32vf103_hw.c **** #define TIM_USEC_DELAY                          0x02
GAS LISTING /var/folders/_0/fbrtbm_x4pbf1b72ynjm3v580000gn/T//cc6hqJ1e.s 			page 2


  44:lib/usbcdc/src/gd32vf103_hw.c **** 
  45:lib/usbcdc/src/gd32vf103_hw.c **** __IO uint32_t delay_time = 0;
  46:lib/usbcdc/src/gd32vf103_hw.c **** __IO uint32_t timer_prescaler;
  47:lib/usbcdc/src/gd32vf103_hw.c **** __IO uint32_t usbfs_prescaler = 0;
  48:lib/usbcdc/src/gd32vf103_hw.c **** 
  49:lib/usbcdc/src/gd32vf103_hw.c **** //static void hw_time_set (uint8_t unit);
  50:lib/usbcdc/src/gd32vf103_hw.c **** static void hw_delay    (uint32_t ntime, uint8_t unit);
  51:lib/usbcdc/src/gd32vf103_hw.c **** 
  52:lib/usbcdc/src/gd32vf103_hw.c **** 
  53:lib/usbcdc/src/gd32vf103_hw.c **** /*!
  54:lib/usbcdc/src/gd32vf103_hw.c ****     \brief      configure USB clock
  55:lib/usbcdc/src/gd32vf103_hw.c ****     \param[in]  none
  56:lib/usbcdc/src/gd32vf103_hw.c ****     \param[out] none
  57:lib/usbcdc/src/gd32vf103_hw.c ****     \retval     none
  58:lib/usbcdc/src/gd32vf103_hw.c **** */
  59:lib/usbcdc/src/gd32vf103_hw.c **** void usb_rcu_config(void)
  60:lib/usbcdc/src/gd32vf103_hw.c **** {
  16              		.loc 1 60 1
  17              		.cfi_startproc
  61:lib/usbcdc/src/gd32vf103_hw.c ****     uint32_t system_clock = rcu_clock_freq_get(CK_SYS);
  18              		.loc 1 61 5
  60:lib/usbcdc/src/gd32vf103_hw.c ****     uint32_t system_clock = rcu_clock_freq_get(CK_SYS);
  19              		.loc 1 60 1 is_stmt 0
  20 0000 4111     		addi	sp,sp,-16
  21              	.LCFI0:
  22              		.cfi_def_cfa_offset 16
  23              		.loc 1 61 29
  24 0002 0145     		li	a0,0
  60:lib/usbcdc/src/gd32vf103_hw.c ****     uint32_t system_clock = rcu_clock_freq_get(CK_SYS);
  25              		.loc 1 60 1
  26 0004 06C6     		sw	ra,12(sp)
  27              		.cfi_offset 1, -4
  28              		.loc 1 61 29
  29 0006 97000000 		call	rcu_clock_freq_get
  29      E7800000 
  30              	.LVL0:
  62:lib/usbcdc/src/gd32vf103_hw.c ****   
  63:lib/usbcdc/src/gd32vf103_hw.c ****     if (system_clock == 48000000) {
  31              		.loc 1 63 5 is_stmt 1
  32              		.loc 1 63 8 is_stmt 0
  33 000e 3777DC02 		li	a4,48001024
  34 0012 B7070000 		lui	a5,%hi(.LANCHOR0)
  35 0016 130707C0 		addi	a4,a4,-1024
  36 001a 93870700 		addi	a5,a5,%lo(.LANCHOR0)
  37 001e 6317E502 		bne	a0,a4,.L2
  64:lib/usbcdc/src/gd32vf103_hw.c ****         usbfs_prescaler = RCU_CKUSB_CKPLL_DIV1;
  38              		.loc 1 64 9 is_stmt 1
  39              		.loc 1 64 25 is_stmt 0
  40 0022 37074000 		li	a4,4194304
  41 0026 98C3     		sw	a4,0(a5)
  65:lib/usbcdc/src/gd32vf103_hw.c ****         timer_prescaler = 3;
  42              		.loc 1 65 9 is_stmt 1
  43              		.loc 1 65 25 is_stmt 0
  44 0028 8D46     		li	a3,3
  45 002a 37070000 		lui	a4,%hi(timer_prescaler)
  46              	.L6:
  66:lib/usbcdc/src/gd32vf103_hw.c ****     } else if (system_clock == 72000000) {
GAS LISTING /var/folders/_0/fbrtbm_x4pbf1b72ynjm3v580000gn/T//cc6hqJ1e.s 			page 3


  67:lib/usbcdc/src/gd32vf103_hw.c ****         usbfs_prescaler = RCU_CKUSB_CKPLL_DIV1_5;
  68:lib/usbcdc/src/gd32vf103_hw.c ****         timer_prescaler = 5;
  69:lib/usbcdc/src/gd32vf103_hw.c ****     } else if (system_clock == 96000000) {
  70:lib/usbcdc/src/gd32vf103_hw.c ****         usbfs_prescaler = RCU_CKUSB_CKPLL_DIV2;
  71:lib/usbcdc/src/gd32vf103_hw.c ****         timer_prescaler = 7;
  47              		.loc 1 71 25
  48 002e 2320D700 		sw	a3,%lo(timer_prescaler)(a4)
  49              	.L3:
  72:lib/usbcdc/src/gd32vf103_hw.c ****     } else {
  73:lib/usbcdc/src/gd32vf103_hw.c ****         /*  reserved  */
  74:lib/usbcdc/src/gd32vf103_hw.c ****     }
  50              		.loc 1 74 5 is_stmt 1
  75:lib/usbcdc/src/gd32vf103_hw.c **** 
  76:lib/usbcdc/src/gd32vf103_hw.c ****     rcu_usb_clock_config(usbfs_prescaler);
  51              		.loc 1 76 5
  52 0032 8843     		lw	a0,0(a5)
  53              	.LVL1:
  54 0034 97000000 		call	rcu_usb_clock_config
  54      E7800000 
  55              	.LVL2:
  77:lib/usbcdc/src/gd32vf103_hw.c ****     rcu_periph_clock_enable(RCU_USBFS);
  56              		.loc 1 77 5
  78:lib/usbcdc/src/gd32vf103_hw.c **** }
  57              		.loc 1 78 1 is_stmt 0
  58 003c B240     		lw	ra,12(sp)
  59              		.cfi_remember_state
  60              		.cfi_restore 1
  77:lib/usbcdc/src/gd32vf103_hw.c ****     rcu_periph_clock_enable(RCU_USBFS);
  61              		.loc 1 77 5
  62 003e 1305C050 		li	a0,1292
  63              		.loc 1 78 1
  64 0042 4101     		addi	sp,sp,16
  65              	.LCFI1:
  66              		.cfi_def_cfa_offset 0
  77:lib/usbcdc/src/gd32vf103_hw.c ****     rcu_periph_clock_enable(RCU_USBFS);
  67              		.loc 1 77 5
  68 0044 17030000 		tail	rcu_periph_clock_enable
  68      67000300 
  69              	.LVL3:
  70              	.L2:
  71              	.LCFI2:
  72              		.cfi_restore_state
  66:lib/usbcdc/src/gd32vf103_hw.c ****         usbfs_prescaler = RCU_CKUSB_CKPLL_DIV1_5;
  73              		.loc 1 66 12 is_stmt 1
  66:lib/usbcdc/src/gd32vf103_hw.c ****         usbfs_prescaler = RCU_CKUSB_CKPLL_DIV1_5;
  74              		.loc 1 66 15 is_stmt 0
  75 004c 37A74A04 		li	a4,71999488
  76 0050 13070720 		addi	a4,a4,512
  77 0054 6318E500 		bne	a0,a4,.L4
  67:lib/usbcdc/src/gd32vf103_hw.c ****         timer_prescaler = 5;
  78              		.loc 1 67 9 is_stmt 1
  67:lib/usbcdc/src/gd32vf103_hw.c ****         timer_prescaler = 5;
  79              		.loc 1 67 25 is_stmt 0
  80 0058 23A00700 		sw	zero,0(a5)
  68:lib/usbcdc/src/gd32vf103_hw.c ****     } else if (system_clock == 96000000) {
  81              		.loc 1 68 9 is_stmt 1
  68:lib/usbcdc/src/gd32vf103_hw.c ****     } else if (system_clock == 96000000) {
GAS LISTING /var/folders/_0/fbrtbm_x4pbf1b72ynjm3v580000gn/T//cc6hqJ1e.s 			page 4


  82              		.loc 1 68 25 is_stmt 0
  83 005c 37070000 		lui	a4,%hi(timer_prescaler)
  84 0060 9546     		li	a3,5
  85 0062 F1B7     		j	.L6
  86              	.L4:
  69:lib/usbcdc/src/gd32vf103_hw.c ****         usbfs_prescaler = RCU_CKUSB_CKPLL_DIV2;
  87              		.loc 1 69 12 is_stmt 1
  69:lib/usbcdc/src/gd32vf103_hw.c ****         usbfs_prescaler = RCU_CKUSB_CKPLL_DIV2;
  88              		.loc 1 69 15 is_stmt 0
  89 0064 37E7B805 		li	a4,96002048
  90 0068 13070780 		addi	a4,a4,-2048
  91 006c E313E5FC 		bne	a0,a4,.L3
  70:lib/usbcdc/src/gd32vf103_hw.c ****         timer_prescaler = 7;
  92              		.loc 1 70 9 is_stmt 1
  70:lib/usbcdc/src/gd32vf103_hw.c ****         timer_prescaler = 7;
  93              		.loc 1 70 25 is_stmt 0
  94 0070 3707C000 		li	a4,12582912
  95 0074 98C3     		sw	a4,0(a5)
  71:lib/usbcdc/src/gd32vf103_hw.c ****     } else {
  96              		.loc 1 71 9 is_stmt 1
  71:lib/usbcdc/src/gd32vf103_hw.c ****     } else {
  97              		.loc 1 71 25 is_stmt 0
  98 0076 9D46     		li	a3,7
  99 0078 37070000 		lui	a4,%hi(timer_prescaler)
 100 007c 4DBF     		j	.L6
 101              		.cfi_endproc
 102              	.LFE6:
 104              		.section	.text.usb_intr_config,"ax",@progbits
 105              		.align	1
 106              		.globl	usb_intr_config
 108              	usb_intr_config:
 109              	.LFB7:
  79:lib/usbcdc/src/gd32vf103_hw.c **** 
  80:lib/usbcdc/src/gd32vf103_hw.c **** /*!
  81:lib/usbcdc/src/gd32vf103_hw.c ****     \brief      configure USB interrupt
  82:lib/usbcdc/src/gd32vf103_hw.c ****     \param[in]  none
  83:lib/usbcdc/src/gd32vf103_hw.c ****     \param[out] none
  84:lib/usbcdc/src/gd32vf103_hw.c ****     \retval     none
  85:lib/usbcdc/src/gd32vf103_hw.c **** */
  86:lib/usbcdc/src/gd32vf103_hw.c **** void usb_intr_config(void)
  87:lib/usbcdc/src/gd32vf103_hw.c **** {
 110              		.loc 1 87 1 is_stmt 1
 111              		.cfi_startproc
  88:lib/usbcdc/src/gd32vf103_hw.c ****     eclic_irq_enable((uint8_t)USBFS_IRQn, 1, 0);
 112              		.loc 1 88 5
  87:lib/usbcdc/src/gd32vf103_hw.c ****     eclic_irq_enable((uint8_t)USBFS_IRQn, 1, 0);
 113              		.loc 1 87 1 is_stmt 0
 114 0000 4111     		addi	sp,sp,-16
 115              	.LCFI3:
 116              		.cfi_def_cfa_offset 16
 117              		.loc 1 88 5
 118 0002 0146     		li	a2,0
 119 0004 8545     		li	a1,1
 120 0006 13056005 		li	a0,86
  87:lib/usbcdc/src/gd32vf103_hw.c ****     eclic_irq_enable((uint8_t)USBFS_IRQn, 1, 0);
 121              		.loc 1 87 1
 122 000a 06C6     		sw	ra,12(sp)
GAS LISTING /var/folders/_0/fbrtbm_x4pbf1b72ynjm3v580000gn/T//cc6hqJ1e.s 			page 5


 123              		.cfi_offset 1, -4
 124              		.loc 1 88 5
 125 000c 97000000 		call	eclic_irq_enable
 125      E7800000 
 126              	.LVL4:
  89:lib/usbcdc/src/gd32vf103_hw.c **** 
  90:lib/usbcdc/src/gd32vf103_hw.c ****     /* enable the power module clock */
  91:lib/usbcdc/src/gd32vf103_hw.c ****     rcu_periph_clock_enable(RCU_PMU);
 127              		.loc 1 91 5 is_stmt 1
 128 0014 1305C071 		li	a0,1820
 129 0018 97000000 		call	rcu_periph_clock_enable
 129      E7800000 
 130              	.LVL5:
  92:lib/usbcdc/src/gd32vf103_hw.c **** 
  93:lib/usbcdc/src/gd32vf103_hw.c ****     /* USB wakeup EXTI line configuration */
  94:lib/usbcdc/src/gd32vf103_hw.c ****     exti_interrupt_flag_clear(EXTI_18);
 131              		.loc 1 94 5
 132 0020 37050400 		li	a0,262144
 133 0024 97000000 		call	exti_interrupt_flag_clear
 133      E7800000 
 134              	.LVL6:
  95:lib/usbcdc/src/gd32vf103_hw.c ****     exti_init(EXTI_18, EXTI_INTERRUPT, EXTI_TRIG_RISING);
 135              		.loc 1 95 5
 136 002c 0146     		li	a2,0
 137 002e 8145     		li	a1,0
 138 0030 37050400 		li	a0,262144
 139 0034 97000000 		call	exti_init
 139      E7800000 
 140              	.LVL7:
  96:lib/usbcdc/src/gd32vf103_hw.c ****     exti_interrupt_enable(EXTI_18);
 141              		.loc 1 96 5
 142 003c 37050400 		li	a0,262144
 143 0040 97000000 		call	exti_interrupt_enable
 143      E7800000 
 144              	.LVL8:
  97:lib/usbcdc/src/gd32vf103_hw.c **** 
  98:lib/usbcdc/src/gd32vf103_hw.c ****     eclic_irq_enable((uint8_t)USBFS_WKUP_IRQn, 3, 0);
 145              		.loc 1 98 5
  99:lib/usbcdc/src/gd32vf103_hw.c **** }
 146              		.loc 1 99 1 is_stmt 0
 147 0048 B240     		lw	ra,12(sp)
 148              		.cfi_restore 1
  98:lib/usbcdc/src/gd32vf103_hw.c **** }
 149              		.loc 1 98 5
 150 004a 0146     		li	a2,0
 151              		.loc 1 99 1
  98:lib/usbcdc/src/gd32vf103_hw.c **** }
 152              		.loc 1 98 5
 153 004c 8D45     		li	a1,3
 154 004e 1305D003 		li	a0,61
 155              		.loc 1 99 1
 156 0052 4101     		addi	sp,sp,16
 157              	.LCFI4:
 158              		.cfi_def_cfa_offset 0
  98:lib/usbcdc/src/gd32vf103_hw.c **** }
 159              		.loc 1 98 5
 160 0054 17030000 		tail	eclic_irq_enable
GAS LISTING /var/folders/_0/fbrtbm_x4pbf1b72ynjm3v580000gn/T//cc6hqJ1e.s 			page 6


 160      67000300 
 161              	.LVL9:
 162              		.cfi_endproc
 163              	.LFE7:
 165              		.section	.text.usb_timer_init,"ax",@progbits
 166              		.align	1
 167              		.globl	usb_timer_init
 169              	usb_timer_init:
 170              	.LFB8:
 100:lib/usbcdc/src/gd32vf103_hw.c **** 
 101:lib/usbcdc/src/gd32vf103_hw.c **** /*!
 102:lib/usbcdc/src/gd32vf103_hw.c ****     \brief      initializes delay unit using Timer2
 103:lib/usbcdc/src/gd32vf103_hw.c ****     \param[in]  none
 104:lib/usbcdc/src/gd32vf103_hw.c ****     \param[out] none
 105:lib/usbcdc/src/gd32vf103_hw.c ****     \retval     none
 106:lib/usbcdc/src/gd32vf103_hw.c **** */
 107:lib/usbcdc/src/gd32vf103_hw.c **** void usb_timer_init (void)
 108:lib/usbcdc/src/gd32vf103_hw.c **** {
 171              		.loc 1 108 1 is_stmt 1
 172              		.cfi_startproc
 109:lib/usbcdc/src/gd32vf103_hw.c ****     /*rcu_periph_clock_enable(RCU_TIMER2);
 110:lib/usbcdc/src/gd32vf103_hw.c **** 
 111:lib/usbcdc/src/gd32vf103_hw.c ****     eclic_irq_enable(TIMER2_IRQn, 2, 0);*/
 112:lib/usbcdc/src/gd32vf103_hw.c **** }
 173              		.loc 1 112 1
 174 0000 8280     		ret
 175              		.cfi_endproc
 176              	.LFE8:
 178              		.section	.text.usb_udelay,"ax",@progbits
 179              		.align	1
 180              		.globl	usb_udelay
 182              	usb_udelay:
 183              	.LFB9:
 113:lib/usbcdc/src/gd32vf103_hw.c **** 
 114:lib/usbcdc/src/gd32vf103_hw.c **** /*!
 115:lib/usbcdc/src/gd32vf103_hw.c ****     \brief      delay in micro seconds
 116:lib/usbcdc/src/gd32vf103_hw.c ****     \param[in]  usec: value of delay required in micro seconds
 117:lib/usbcdc/src/gd32vf103_hw.c ****     \param[out] none
 118:lib/usbcdc/src/gd32vf103_hw.c ****     \retval     none
 119:lib/usbcdc/src/gd32vf103_hw.c **** */
 120:lib/usbcdc/src/gd32vf103_hw.c **** void usb_udelay (const uint32_t usec)
 121:lib/usbcdc/src/gd32vf103_hw.c **** {
 184              		.loc 1 121 1
 185              		.cfi_startproc
 186              	.LVL10:
 122:lib/usbcdc/src/gd32vf103_hw.c ****     hw_delay(usec, TIM_USEC_DELAY);
 187              		.loc 1 122 5
 188              	.LBB6:
 189              	.LBB7:
 123:lib/usbcdc/src/gd32vf103_hw.c **** }
 124:lib/usbcdc/src/gd32vf103_hw.c **** 
 125:lib/usbcdc/src/gd32vf103_hw.c **** /*!
 126:lib/usbcdc/src/gd32vf103_hw.c ****     \brief      delay in milli seconds
 127:lib/usbcdc/src/gd32vf103_hw.c ****     \param[in]  msec: value of delay required in milli seconds
 128:lib/usbcdc/src/gd32vf103_hw.c ****     \param[out] none
 129:lib/usbcdc/src/gd32vf103_hw.c ****     \retval     none
 130:lib/usbcdc/src/gd32vf103_hw.c **** */
GAS LISTING /var/folders/_0/fbrtbm_x4pbf1b72ynjm3v580000gn/T//cc6hqJ1e.s 			page 7


 131:lib/usbcdc/src/gd32vf103_hw.c **** void usb_mdelay (const uint32_t msec)
 132:lib/usbcdc/src/gd32vf103_hw.c **** {
 133:lib/usbcdc/src/gd32vf103_hw.c ****     hw_delay(msec, TIM_MSEC_DELAY);
 134:lib/usbcdc/src/gd32vf103_hw.c **** }
 135:lib/usbcdc/src/gd32vf103_hw.c **** 
 136:lib/usbcdc/src/gd32vf103_hw.c **** /*!
 137:lib/usbcdc/src/gd32vf103_hw.c ****     \brief      delay routine based on TIM0
 138:lib/usbcdc/src/gd32vf103_hw.c ****     \param[in]  nTime: delay Time 
 139:lib/usbcdc/src/gd32vf103_hw.c ****     \param[in]  unit: delay Time unit = mili sec / micro sec
 140:lib/usbcdc/src/gd32vf103_hw.c ****     \param[out] none
 141:lib/usbcdc/src/gd32vf103_hw.c ****     \retval     none
 142:lib/usbcdc/src/gd32vf103_hw.c **** */
 143:lib/usbcdc/src/gd32vf103_hw.c **** static void hw_delay(uint32_t ntime, uint8_t unit)
 144:lib/usbcdc/src/gd32vf103_hw.c **** {
 145:lib/usbcdc/src/gd32vf103_hw.c ****     if(unit == TIM_USEC_DELAY){
 190              		.loc 1 145 5
 146:lib/usbcdc/src/gd32vf103_hw.c ****         usb_delay_1us(ntime);
 191              		.loc 1 146 9
 192 0000 17030000 		tail	usb_delay_1us
 192      67000300 
 193              	.LVL11:
 194              	.LBE7:
 195              	.LBE6:
 196              		.cfi_endproc
 197              	.LFE9:
 199              		.section	.text.usb_mdelay,"ax",@progbits
 200              		.align	1
 201              		.globl	usb_mdelay
 203              	usb_mdelay:
 204              	.LFB10:
 132:lib/usbcdc/src/gd32vf103_hw.c ****     hw_delay(msec, TIM_MSEC_DELAY);
 205              		.loc 1 132 1
 206              		.cfi_startproc
 207              	.LVL12:
 133:lib/usbcdc/src/gd32vf103_hw.c **** }
 208              		.loc 1 133 5
 209              	.LBB8:
 210              	.LBB9:
 145:lib/usbcdc/src/gd32vf103_hw.c ****         usb_delay_1us(ntime);
 211              		.loc 1 145 5
 147:lib/usbcdc/src/gd32vf103_hw.c ****         return;
 148:lib/usbcdc/src/gd32vf103_hw.c ****     }
 149:lib/usbcdc/src/gd32vf103_hw.c ****     if(unit == TIM_MSEC_DELAY){
 212              		.loc 1 149 5
 150:lib/usbcdc/src/gd32vf103_hw.c ****             usb_delay_1ms(ntime);
 213              		.loc 1 150 13
 214 0000 17030000 		tail	usb_delay_1ms
 214      67000300 
 215              	.LVL13:
 216              	.LBE9:
 217              	.LBE8:
 218              		.cfi_endproc
 219              	.LFE10:
 221              		.globl	usbfs_prescaler
 222              		.comm	timer_prescaler,4,4
 223              		.globl	delay_time
 224              		.section	.sbss.delay_time,"aw",@nobits
GAS LISTING /var/folders/_0/fbrtbm_x4pbf1b72ynjm3v580000gn/T//cc6hqJ1e.s 			page 8


 225              		.align	2
 228              	delay_time:
 229 0000 00000000 		.zero	4
 230              		.section	.sbss.usbfs_prescaler,"aw",@nobits
 231              		.align	2
 232              		.set	.LANCHOR0,. + 0
 235              	usbfs_prescaler:
 236 0000 00000000 		.zero	4
 237              		.text
 238              	.Letext0:
 239              		.file 2 "/Users/gustavsf/Desktop/toolchain-gd32v-v202-osx/compiler/riscv64-unknown-elf/include/mac
 240              		.file 3 "/Users/gustavsf/Desktop/toolchain-gd32v-v202-osx/compiler/riscv64-unknown-elf/include/sys
 241              		.file 4 "../../firmware/GD32VF103_standard_peripheral/Include/gd32vf103_exti.h"
 242              		.file 5 "../../firmware/GD32VF103_standard_peripheral/Include/gd32vf103_rcu.h"
 243              		.file 6 "/Users/gustavsf/Desktop/toolchain-gd32v-v202-osx/compiler/lib/gcc/riscv64-unknown-elf/8.3
 244              		.file 7 "/Users/gustavsf/Desktop/toolchain-gd32v-v202-osx/compiler/riscv64-unknown-elf/include/sys
 245              		.file 8 "/Users/gustavsf/Desktop/toolchain-gd32v-v202-osx/compiler/riscv64-unknown-elf/include/sys
 246              		.file 9 "/Users/gustavsf/Desktop/toolchain-gd32v-v202-osx/compiler/riscv64-unknown-elf/include/sys
 247              		.file 10 "../../firmware/GD32VF103_standard_peripheral/system_gd32vf103.h"
 248              		.file 11 "/Users/gustavsf/Desktop/toolchain-gd32v-v202-osx/compiler/riscv64-unknown-elf/include/st
 249              		.file 12 "lib/usbcdc/include/usb_delay.h"
 250              		.file 13 "../../firmware/GD32VF103_standard_peripheral/Include/gd32vf103_eclic.h"
 251              		.file 14 "../../firmware/GD32VF103_standard_peripheral/gd32vf103.h"
GAS LISTING /var/folders/_0/fbrtbm_x4pbf1b72ynjm3v580000gn/T//cc6hqJ1e.s 			page 9


DEFINED SYMBOLS
                            *ABS*:0000000000000000 gd32vf103_hw.c
/var/folders/_0/fbrtbm_x4pbf1b72ynjm3v580000gn/T//cc6hqJ1e.s:13     .text.usb_rcu_config:0000000000000000 usb_rcu_config
/var/folders/_0/fbrtbm_x4pbf1b72ynjm3v580000gn/T//cc6hqJ1e.s:17     .text.usb_rcu_config:0000000000000000 .L0 
/var/folders/_0/fbrtbm_x4pbf1b72ynjm3v580000gn/T//cc6hqJ1e.s:18     .text.usb_rcu_config:0000000000000000 .L0 
/var/folders/_0/fbrtbm_x4pbf1b72ynjm3v580000gn/T//cc6hqJ1e.s:19     .text.usb_rcu_config:0000000000000000 .L0 
/var/folders/_0/fbrtbm_x4pbf1b72ynjm3v580000gn/T//cc6hqJ1e.s:20     .text.usb_rcu_config:0000000000000000 .L0 
/var/folders/_0/fbrtbm_x4pbf1b72ynjm3v580000gn/T//cc6hqJ1e.s:22     .text.usb_rcu_config:0000000000000002 .L0 
/var/folders/_0/fbrtbm_x4pbf1b72ynjm3v580000gn/T//cc6hqJ1e.s:24     .text.usb_rcu_config:0000000000000002 .L0 
/var/folders/_0/fbrtbm_x4pbf1b72ynjm3v580000gn/T//cc6hqJ1e.s:26     .text.usb_rcu_config:0000000000000004 .L0 
/var/folders/_0/fbrtbm_x4pbf1b72ynjm3v580000gn/T//cc6hqJ1e.s:27     .text.usb_rcu_config:0000000000000006 .L0 
/var/folders/_0/fbrtbm_x4pbf1b72ynjm3v580000gn/T//cc6hqJ1e.s:29     .text.usb_rcu_config:0000000000000006 .L0 
/var/folders/_0/fbrtbm_x4pbf1b72ynjm3v580000gn/T//cc6hqJ1e.s:32     .text.usb_rcu_config:000000000000000e .L0 
/var/folders/_0/fbrtbm_x4pbf1b72ynjm3v580000gn/T//cc6hqJ1e.s:33     .text.usb_rcu_config:000000000000000e .L0 
/var/folders/_0/fbrtbm_x4pbf1b72ynjm3v580000gn/T//cc6hqJ1e.s:39     .text.usb_rcu_config:0000000000000022 .L0 
/var/folders/_0/fbrtbm_x4pbf1b72ynjm3v580000gn/T//cc6hqJ1e.s:40     .text.usb_rcu_config:0000000000000022 .L0 
/var/folders/_0/fbrtbm_x4pbf1b72ynjm3v580000gn/T//cc6hqJ1e.s:43     .text.usb_rcu_config:0000000000000028 .L0 
/var/folders/_0/fbrtbm_x4pbf1b72ynjm3v580000gn/T//cc6hqJ1e.s:44     .text.usb_rcu_config:0000000000000028 .L0 
                            *COM*:0000000000000004 timer_prescaler
/var/folders/_0/fbrtbm_x4pbf1b72ynjm3v580000gn/T//cc6hqJ1e.s:48     .text.usb_rcu_config:000000000000002e .L0 
/var/folders/_0/fbrtbm_x4pbf1b72ynjm3v580000gn/T//cc6hqJ1e.s:51     .text.usb_rcu_config:0000000000000032 .L0 
/var/folders/_0/fbrtbm_x4pbf1b72ynjm3v580000gn/T//cc6hqJ1e.s:52     .text.usb_rcu_config:0000000000000032 .L0 
/var/folders/_0/fbrtbm_x4pbf1b72ynjm3v580000gn/T//cc6hqJ1e.s:57     .text.usb_rcu_config:000000000000003c .L0 
/var/folders/_0/fbrtbm_x4pbf1b72ynjm3v580000gn/T//cc6hqJ1e.s:58     .text.usb_rcu_config:000000000000003c .L0 
/var/folders/_0/fbrtbm_x4pbf1b72ynjm3v580000gn/T//cc6hqJ1e.s:59     .text.usb_rcu_config:000000000000003e .L0 
/var/folders/_0/fbrtbm_x4pbf1b72ynjm3v580000gn/T//cc6hqJ1e.s:60     .text.usb_rcu_config:000000000000003e .L0 
/var/folders/_0/fbrtbm_x4pbf1b72ynjm3v580000gn/T//cc6hqJ1e.s:62     .text.usb_rcu_config:000000000000003e .L0 
/var/folders/_0/fbrtbm_x4pbf1b72ynjm3v580000gn/T//cc6hqJ1e.s:64     .text.usb_rcu_config:0000000000000042 .L0 
/var/folders/_0/fbrtbm_x4pbf1b72ynjm3v580000gn/T//cc6hqJ1e.s:66     .text.usb_rcu_config:0000000000000044 .L0 
/var/folders/_0/fbrtbm_x4pbf1b72ynjm3v580000gn/T//cc6hqJ1e.s:68     .text.usb_rcu_config:0000000000000044 .L0 
/var/folders/_0/fbrtbm_x4pbf1b72ynjm3v580000gn/T//cc6hqJ1e.s:72     .text.usb_rcu_config:000000000000004c .L0 
/var/folders/_0/fbrtbm_x4pbf1b72ynjm3v580000gn/T//cc6hqJ1e.s:74     .text.usb_rcu_config:000000000000004c .L0 
/var/folders/_0/fbrtbm_x4pbf1b72ynjm3v580000gn/T//cc6hqJ1e.s:75     .text.usb_rcu_config:000000000000004c .L0 
/var/folders/_0/fbrtbm_x4pbf1b72ynjm3v580000gn/T//cc6hqJ1e.s:79     .text.usb_rcu_config:0000000000000058 .L0 
/var/folders/_0/fbrtbm_x4pbf1b72ynjm3v580000gn/T//cc6hqJ1e.s:80     .text.usb_rcu_config:0000000000000058 .L0 
/var/folders/_0/fbrtbm_x4pbf1b72ynjm3v580000gn/T//cc6hqJ1e.s:82     .text.usb_rcu_config:000000000000005c .L0 
/var/folders/_0/fbrtbm_x4pbf1b72ynjm3v580000gn/T//cc6hqJ1e.s:83     .text.usb_rcu_config:000000000000005c .L0 
/var/folders/_0/fbrtbm_x4pbf1b72ynjm3v580000gn/T//cc6hqJ1e.s:88     .text.usb_rcu_config:0000000000000064 .L0 
/var/folders/_0/fbrtbm_x4pbf1b72ynjm3v580000gn/T//cc6hqJ1e.s:89     .text.usb_rcu_config:0000000000000064 .L0 
/var/folders/_0/fbrtbm_x4pbf1b72ynjm3v580000gn/T//cc6hqJ1e.s:93     .text.usb_rcu_config:0000000000000070 .L0 
/var/folders/_0/fbrtbm_x4pbf1b72ynjm3v580000gn/T//cc6hqJ1e.s:94     .text.usb_rcu_config:0000000000000070 .L0 
/var/folders/_0/fbrtbm_x4pbf1b72ynjm3v580000gn/T//cc6hqJ1e.s:97     .text.usb_rcu_config:0000000000000076 .L0 
/var/folders/_0/fbrtbm_x4pbf1b72ynjm3v580000gn/T//cc6hqJ1e.s:98     .text.usb_rcu_config:0000000000000076 .L0 
/var/folders/_0/fbrtbm_x4pbf1b72ynjm3v580000gn/T//cc6hqJ1e.s:101    .text.usb_rcu_config:000000000000007e .L0 
/var/folders/_0/fbrtbm_x4pbf1b72ynjm3v580000gn/T//cc6hqJ1e.s:108    .text.usb_intr_config:0000000000000000 usb_intr_config
/var/folders/_0/fbrtbm_x4pbf1b72ynjm3v580000gn/T//cc6hqJ1e.s:111    .text.usb_intr_config:0000000000000000 .L0 
/var/folders/_0/fbrtbm_x4pbf1b72ynjm3v580000gn/T//cc6hqJ1e.s:112    .text.usb_intr_config:0000000000000000 .L0 
/var/folders/_0/fbrtbm_x4pbf1b72ynjm3v580000gn/T//cc6hqJ1e.s:113    .text.usb_intr_config:0000000000000000 .L0 
/var/folders/_0/fbrtbm_x4pbf1b72ynjm3v580000gn/T//cc6hqJ1e.s:114    .text.usb_intr_config:0000000000000000 .L0 
/var/folders/_0/fbrtbm_x4pbf1b72ynjm3v580000gn/T//cc6hqJ1e.s:116    .text.usb_intr_config:0000000000000002 .L0 
/var/folders/_0/fbrtbm_x4pbf1b72ynjm3v580000gn/T//cc6hqJ1e.s:118    .text.usb_intr_config:0000000000000002 .L0 
/var/folders/_0/fbrtbm_x4pbf1b72ynjm3v580000gn/T//cc6hqJ1e.s:122    .text.usb_intr_config:000000000000000a .L0 
/var/folders/_0/fbrtbm_x4pbf1b72ynjm3v580000gn/T//cc6hqJ1e.s:123    .text.usb_intr_config:000000000000000c .L0 
/var/folders/_0/fbrtbm_x4pbf1b72ynjm3v580000gn/T//cc6hqJ1e.s:125    .text.usb_intr_config:000000000000000c .L0 
/var/folders/_0/fbrtbm_x4pbf1b72ynjm3v580000gn/T//cc6hqJ1e.s:128    .text.usb_intr_config:0000000000000014 .L0 
/var/folders/_0/fbrtbm_x4pbf1b72ynjm3v580000gn/T//cc6hqJ1e.s:132    .text.usb_intr_config:0000000000000020 .L0 
/var/folders/_0/fbrtbm_x4pbf1b72ynjm3v580000gn/T//cc6hqJ1e.s:136    .text.usb_intr_config:000000000000002c .L0 
GAS LISTING /var/folders/_0/fbrtbm_x4pbf1b72ynjm3v580000gn/T//cc6hqJ1e.s 			page 10


/var/folders/_0/fbrtbm_x4pbf1b72ynjm3v580000gn/T//cc6hqJ1e.s:142    .text.usb_intr_config:000000000000003c .L0 
/var/folders/_0/fbrtbm_x4pbf1b72ynjm3v580000gn/T//cc6hqJ1e.s:146    .text.usb_intr_config:0000000000000048 .L0 
/var/folders/_0/fbrtbm_x4pbf1b72ynjm3v580000gn/T//cc6hqJ1e.s:147    .text.usb_intr_config:0000000000000048 .L0 
/var/folders/_0/fbrtbm_x4pbf1b72ynjm3v580000gn/T//cc6hqJ1e.s:148    .text.usb_intr_config:000000000000004a .L0 
/var/folders/_0/fbrtbm_x4pbf1b72ynjm3v580000gn/T//cc6hqJ1e.s:150    .text.usb_intr_config:000000000000004a .L0 
/var/folders/_0/fbrtbm_x4pbf1b72ynjm3v580000gn/T//cc6hqJ1e.s:152    .text.usb_intr_config:000000000000004c .L0 
/var/folders/_0/fbrtbm_x4pbf1b72ynjm3v580000gn/T//cc6hqJ1e.s:153    .text.usb_intr_config:000000000000004c .L0 
/var/folders/_0/fbrtbm_x4pbf1b72ynjm3v580000gn/T//cc6hqJ1e.s:156    .text.usb_intr_config:0000000000000052 .L0 
/var/folders/_0/fbrtbm_x4pbf1b72ynjm3v580000gn/T//cc6hqJ1e.s:158    .text.usb_intr_config:0000000000000054 .L0 
/var/folders/_0/fbrtbm_x4pbf1b72ynjm3v580000gn/T//cc6hqJ1e.s:160    .text.usb_intr_config:0000000000000054 .L0 
/var/folders/_0/fbrtbm_x4pbf1b72ynjm3v580000gn/T//cc6hqJ1e.s:162    .text.usb_intr_config:000000000000005c .L0 
/var/folders/_0/fbrtbm_x4pbf1b72ynjm3v580000gn/T//cc6hqJ1e.s:169    .text.usb_timer_init:0000000000000000 usb_timer_init
/var/folders/_0/fbrtbm_x4pbf1b72ynjm3v580000gn/T//cc6hqJ1e.s:172    .text.usb_timer_init:0000000000000000 .L0 
/var/folders/_0/fbrtbm_x4pbf1b72ynjm3v580000gn/T//cc6hqJ1e.s:173    .text.usb_timer_init:0000000000000000 .L0 
/var/folders/_0/fbrtbm_x4pbf1b72ynjm3v580000gn/T//cc6hqJ1e.s:174    .text.usb_timer_init:0000000000000000 .L0 
/var/folders/_0/fbrtbm_x4pbf1b72ynjm3v580000gn/T//cc6hqJ1e.s:175    .text.usb_timer_init:0000000000000002 .L0 
/var/folders/_0/fbrtbm_x4pbf1b72ynjm3v580000gn/T//cc6hqJ1e.s:182    .text.usb_udelay:0000000000000000 usb_udelay
/var/folders/_0/fbrtbm_x4pbf1b72ynjm3v580000gn/T//cc6hqJ1e.s:185    .text.usb_udelay:0000000000000000 .L0 
/var/folders/_0/fbrtbm_x4pbf1b72ynjm3v580000gn/T//cc6hqJ1e.s:187    .text.usb_udelay:0000000000000000 .L0 
/var/folders/_0/fbrtbm_x4pbf1b72ynjm3v580000gn/T//cc6hqJ1e.s:190    .text.usb_udelay:0000000000000000 .L0 
/var/folders/_0/fbrtbm_x4pbf1b72ynjm3v580000gn/T//cc6hqJ1e.s:191    .text.usb_udelay:0000000000000000 .L0 
/var/folders/_0/fbrtbm_x4pbf1b72ynjm3v580000gn/T//cc6hqJ1e.s:192    .text.usb_udelay:0000000000000000 .L0 
/var/folders/_0/fbrtbm_x4pbf1b72ynjm3v580000gn/T//cc6hqJ1e.s:196    .text.usb_udelay:0000000000000008 .L0 
/var/folders/_0/fbrtbm_x4pbf1b72ynjm3v580000gn/T//cc6hqJ1e.s:203    .text.usb_mdelay:0000000000000000 usb_mdelay
/var/folders/_0/fbrtbm_x4pbf1b72ynjm3v580000gn/T//cc6hqJ1e.s:206    .text.usb_mdelay:0000000000000000 .L0 
/var/folders/_0/fbrtbm_x4pbf1b72ynjm3v580000gn/T//cc6hqJ1e.s:208    .text.usb_mdelay:0000000000000000 .L0 
/var/folders/_0/fbrtbm_x4pbf1b72ynjm3v580000gn/T//cc6hqJ1e.s:211    .text.usb_mdelay:0000000000000000 .L0 
/var/folders/_0/fbrtbm_x4pbf1b72ynjm3v580000gn/T//cc6hqJ1e.s:212    .text.usb_mdelay:0000000000000000 .L0 
/var/folders/_0/fbrtbm_x4pbf1b72ynjm3v580000gn/T//cc6hqJ1e.s:213    .text.usb_mdelay:0000000000000000 .L0 
/var/folders/_0/fbrtbm_x4pbf1b72ynjm3v580000gn/T//cc6hqJ1e.s:214    .text.usb_mdelay:0000000000000000 .L0 
/var/folders/_0/fbrtbm_x4pbf1b72ynjm3v580000gn/T//cc6hqJ1e.s:218    .text.usb_mdelay:0000000000000008 .L0 
/var/folders/_0/fbrtbm_x4pbf1b72ynjm3v580000gn/T//cc6hqJ1e.s:235    .sbss.usbfs_prescaler:0000000000000000 usbfs_prescaler
/var/folders/_0/fbrtbm_x4pbf1b72ynjm3v580000gn/T//cc6hqJ1e.s:228    .sbss.delay_time:0000000000000000 delay_time
/var/folders/_0/fbrtbm_x4pbf1b72ynjm3v580000gn/T//cc6hqJ1e.s:232    .sbss.usbfs_prescaler:0000000000000000 .LANCHOR0
/var/folders/_0/fbrtbm_x4pbf1b72ynjm3v580000gn/T//cc6hqJ1e.s:104    .text.usb_rcu_config:000000000000007e .L0 
/var/folders/_0/fbrtbm_x4pbf1b72ynjm3v580000gn/T//cc6hqJ1e.s:165    .text.usb_intr_config:000000000000005c .L0 
/var/folders/_0/fbrtbm_x4pbf1b72ynjm3v580000gn/T//cc6hqJ1e.s:178    .text.usb_timer_init:0000000000000002 .L0 
/var/folders/_0/fbrtbm_x4pbf1b72ynjm3v580000gn/T//cc6hqJ1e.s:199    .text.usb_udelay:0000000000000008 .L0 
/var/folders/_0/fbrtbm_x4pbf1b72ynjm3v580000gn/T//cc6hqJ1e.s:224    .text.usb_mdelay:0000000000000008 .L0 
                     .debug_frame:0000000000000000 .L0 
/var/folders/_0/fbrtbm_x4pbf1b72ynjm3v580000gn/T//cc6hqJ1e.s:70     .text.usb_rcu_config:000000000000004c .L2
/var/folders/_0/fbrtbm_x4pbf1b72ynjm3v580000gn/T//cc6hqJ1e.s:86     .text.usb_rcu_config:0000000000000064 .L4
/var/folders/_0/fbrtbm_x4pbf1b72ynjm3v580000gn/T//cc6hqJ1e.s:46     .text.usb_rcu_config:000000000000002e .L6
/var/folders/_0/fbrtbm_x4pbf1b72ynjm3v580000gn/T//cc6hqJ1e.s:49     .text.usb_rcu_config:0000000000000032 .L3
/var/folders/_0/fbrtbm_x4pbf1b72ynjm3v580000gn/T//cc6hqJ1e.s:2524   .debug_abbrev:0000000000000000 .Ldebug_abbrev0
/var/folders/_0/fbrtbm_x4pbf1b72ynjm3v580000gn/T//cc6hqJ1e.s:3513   .debug_str:0000000000000145 .LASF278
/var/folders/_0/fbrtbm_x4pbf1b72ynjm3v580000gn/T//cc6hqJ1e.s:3595   .debug_str:0000000000000396 .LASF279
/var/folders/_0/fbrtbm_x4pbf1b72ynjm3v580000gn/T//cc6hqJ1e.s:3833   .debug_str:00000000000008dc .LASF280
/var/folders/_0/fbrtbm_x4pbf1b72ynjm3v580000gn/T//cc6hqJ1e.s:3433   .debug_ranges:0000000000000000 .Ldebug_ranges0
/var/folders/_0/fbrtbm_x4pbf1b72ynjm3v580000gn/T//cc6hqJ1e.s:3447   .debug_line:0000000000000000 .Ldebug_line0
/var/folders/_0/fbrtbm_x4pbf1b72ynjm3v580000gn/T//cc6hqJ1e.s:3565   .debug_str:00000000000002f5 .LASF281
/var/folders/_0/fbrtbm_x4pbf1b72ynjm3v580000gn/T//cc6hqJ1e.s:3777   .debug_str:00000000000007b8 .LASF0
/var/folders/_0/fbrtbm_x4pbf1b72ynjm3v580000gn/T//cc6hqJ1e.s:4015   .debug_str:0000000000000cd6 .LASF1
/var/folders/_0/fbrtbm_x4pbf1b72ynjm3v580000gn/T//cc6hqJ1e.s:3685   .debug_str:000000000000059e .LASF2
/var/folders/_0/fbrtbm_x4pbf1b72ynjm3v580000gn/T//cc6hqJ1e.s:3577   .debug_str:0000000000000336 .LASF3
/var/folders/_0/fbrtbm_x4pbf1b72ynjm3v580000gn/T//cc6hqJ1e.s:3829   .debug_str:00000000000008c5 .LASF4
/var/folders/_0/fbrtbm_x4pbf1b72ynjm3v580000gn/T//cc6hqJ1e.s:3907   .debug_str:0000000000000a95 .LASF5
GAS LISTING /var/folders/_0/fbrtbm_x4pbf1b72ynjm3v580000gn/T//cc6hqJ1e.s 			page 11


/var/folders/_0/fbrtbm_x4pbf1b72ynjm3v580000gn/T//cc6hqJ1e.s:3947   .debug_str:0000000000000b82 .LASF6
/var/folders/_0/fbrtbm_x4pbf1b72ynjm3v580000gn/T//cc6hqJ1e.s:3561   .debug_str:00000000000002dc .LASF7
/var/folders/_0/fbrtbm_x4pbf1b72ynjm3v580000gn/T//cc6hqJ1e.s:4017   .debug_str:0000000000000ce3 .LASF8
/var/folders/_0/fbrtbm_x4pbf1b72ynjm3v580000gn/T//cc6hqJ1e.s:3855   .debug_str:000000000000097f .LASF9
/var/folders/_0/fbrtbm_x4pbf1b72ynjm3v580000gn/T//cc6hqJ1e.s:3909   .debug_str:0000000000000aa0 .LASF10
/var/folders/_0/fbrtbm_x4pbf1b72ynjm3v580000gn/T//cc6hqJ1e.s:3905   .debug_str:0000000000000a8a .LASF11
/var/folders/_0/fbrtbm_x4pbf1b72ynjm3v580000gn/T//cc6hqJ1e.s:3677   .debug_str:000000000000056f .LASF12
/var/folders/_0/fbrtbm_x4pbf1b72ynjm3v580000gn/T//cc6hqJ1e.s:3449   .debug_str:0000000000000000 .LASF13
/var/folders/_0/fbrtbm_x4pbf1b72ynjm3v580000gn/T//cc6hqJ1e.s:4001   .debug_str:0000000000000c79 .LASF14
/var/folders/_0/fbrtbm_x4pbf1b72ynjm3v580000gn/T//cc6hqJ1e.s:3775   .debug_str:00000000000007ad .LASF15
/var/folders/_0/fbrtbm_x4pbf1b72ynjm3v580000gn/T//cc6hqJ1e.s:3535   .debug_str:0000000000000249 .LASF16
/var/folders/_0/fbrtbm_x4pbf1b72ynjm3v580000gn/T//cc6hqJ1e.s:3503   .debug_str:000000000000010b .LASF17
/var/folders/_0/fbrtbm_x4pbf1b72ynjm3v580000gn/T//cc6hqJ1e.s:3851   .debug_str:000000000000095e .LASF18
/var/folders/_0/fbrtbm_x4pbf1b72ynjm3v580000gn/T//cc6hqJ1e.s:3639   .debug_str:00000000000004b4 .LASF19
/var/folders/_0/fbrtbm_x4pbf1b72ynjm3v580000gn/T//cc6hqJ1e.s:3601   .debug_str:00000000000003d2 .LASF20
/var/folders/_0/fbrtbm_x4pbf1b72ynjm3v580000gn/T//cc6hqJ1e.s:3929   .debug_str:0000000000000b1b .LASF21
/var/folders/_0/fbrtbm_x4pbf1b72ynjm3v580000gn/T//cc6hqJ1e.s:3707   .debug_str:0000000000000623 .LASF22
/var/folders/_0/fbrtbm_x4pbf1b72ynjm3v580000gn/T//cc6hqJ1e.s:3623   .debug_str:0000000000000468 .LASF23
/var/folders/_0/fbrtbm_x4pbf1b72ynjm3v580000gn/T//cc6hqJ1e.s:3563   .debug_str:00000000000002e8 .LASF24
/var/folders/_0/fbrtbm_x4pbf1b72ynjm3v580000gn/T//cc6hqJ1e.s:3713   .debug_str:0000000000000648 .LASF25
/var/folders/_0/fbrtbm_x4pbf1b72ynjm3v580000gn/T//cc6hqJ1e.s:3515   .debug_str:00000000000001cd .LASF26
/var/folders/_0/fbrtbm_x4pbf1b72ynjm3v580000gn/T//cc6hqJ1e.s:3917   .debug_str:0000000000000ad7 .LASF27
/var/folders/_0/fbrtbm_x4pbf1b72ynjm3v580000gn/T//cc6hqJ1e.s:3559   .debug_str:00000000000002cf .LASF28
/var/folders/_0/fbrtbm_x4pbf1b72ynjm3v580000gn/T//cc6hqJ1e.s:3459   .debug_str:000000000000002c .LASF29
/var/folders/_0/fbrtbm_x4pbf1b72ynjm3v580000gn/T//cc6hqJ1e.s:3919   .debug_str:0000000000000ae6 .LASF30
/var/folders/_0/fbrtbm_x4pbf1b72ynjm3v580000gn/T//cc6hqJ1e.s:3937   .debug_str:0000000000000b4f .LASF31
/var/folders/_0/fbrtbm_x4pbf1b72ynjm3v580000gn/T//cc6hqJ1e.s:3719   .debug_str:0000000000000669 .LASF32
/var/folders/_0/fbrtbm_x4pbf1b72ynjm3v580000gn/T//cc6hqJ1e.s:3725   .debug_str:0000000000000695 .LASF33
/var/folders/_0/fbrtbm_x4pbf1b72ynjm3v580000gn/T//cc6hqJ1e.s:3519   .debug_str:00000000000001e1 .LASF34
/var/folders/_0/fbrtbm_x4pbf1b72ynjm3v580000gn/T//cc6hqJ1e.s:3871   .debug_str:00000000000009ea .LASF35
/var/folders/_0/fbrtbm_x4pbf1b72ynjm3v580000gn/T//cc6hqJ1e.s:3539   .debug_str:0000000000000266 .LASF36
/var/folders/_0/fbrtbm_x4pbf1b72ynjm3v580000gn/T//cc6hqJ1e.s:3461   .debug_str:000000000000003c .LASF37
/var/folders/_0/fbrtbm_x4pbf1b72ynjm3v580000gn/T//cc6hqJ1e.s:3649   .debug_str:00000000000004fb .LASF38
/var/folders/_0/fbrtbm_x4pbf1b72ynjm3v580000gn/T//cc6hqJ1e.s:3605   .debug_str:00000000000003fe .LASF39
/var/folders/_0/fbrtbm_x4pbf1b72ynjm3v580000gn/T//cc6hqJ1e.s:3949   .debug_str:0000000000000b8b .LASF40
/var/folders/_0/fbrtbm_x4pbf1b72ynjm3v580000gn/T//cc6hqJ1e.s:3747   .debug_str:000000000000070b .LASF41
/var/folders/_0/fbrtbm_x4pbf1b72ynjm3v580000gn/T//cc6hqJ1e.s:3815   .debug_str:000000000000086e .LASF42
/var/folders/_0/fbrtbm_x4pbf1b72ynjm3v580000gn/T//cc6hqJ1e.s:3867   .debug_str:00000000000009d5 .LASF43
/var/folders/_0/fbrtbm_x4pbf1b72ynjm3v580000gn/T//cc6hqJ1e.s:3645   .debug_str:00000000000004dd .LASF44
/var/folders/_0/fbrtbm_x4pbf1b72ynjm3v580000gn/T//cc6hqJ1e.s:3643   .debug_str:00000000000004ce .LASF45
/var/folders/_0/fbrtbm_x4pbf1b72ynjm3v580000gn/T//cc6hqJ1e.s:3893   .debug_str:0000000000000a51 .LASF46
/var/folders/_0/fbrtbm_x4pbf1b72ynjm3v580000gn/T//cc6hqJ1e.s:3751   .debug_str:000000000000071d .LASF47
/var/folders/_0/fbrtbm_x4pbf1b72ynjm3v580000gn/T//cc6hqJ1e.s:3477   .debug_str:0000000000000087 .LASF48
/var/folders/_0/fbrtbm_x4pbf1b72ynjm3v580000gn/T//cc6hqJ1e.s:3839   .debug_str:000000000000092b .LASF49
/var/folders/_0/fbrtbm_x4pbf1b72ynjm3v580000gn/T//cc6hqJ1e.s:3537   .debug_str:000000000000025c .LASF50
/var/folders/_0/fbrtbm_x4pbf1b72ynjm3v580000gn/T//cc6hqJ1e.s:3991   .debug_str:0000000000000c44 .LASF51
/var/folders/_0/fbrtbm_x4pbf1b72ynjm3v580000gn/T//cc6hqJ1e.s:3771   .debug_str:0000000000000797 .LASF52
/var/folders/_0/fbrtbm_x4pbf1b72ynjm3v580000gn/T//cc6hqJ1e.s:3633   .debug_str:000000000000048b .LASF53
/var/folders/_0/fbrtbm_x4pbf1b72ynjm3v580000gn/T//cc6hqJ1e.s:3951   .debug_str:0000000000000b95 .LASF54
/var/folders/_0/fbrtbm_x4pbf1b72ynjm3v580000gn/T//cc6hqJ1e.s:3819   .debug_str:0000000000000889 .LASF55
/var/folders/_0/fbrtbm_x4pbf1b72ynjm3v580000gn/T//cc6hqJ1e.s:3613   .debug_str:0000000000000434 .LASF56
/var/folders/_0/fbrtbm_x4pbf1b72ynjm3v580000gn/T//cc6hqJ1e.s:3935   .debug_str:0000000000000b3c .LASF57
/var/folders/_0/fbrtbm_x4pbf1b72ynjm3v580000gn/T//cc6hqJ1e.s:3911   .debug_str:0000000000000aad .LASF58
/var/folders/_0/fbrtbm_x4pbf1b72ynjm3v580000gn/T//cc6hqJ1e.s:3687   .debug_str:00000000000005ab .LASF59
/var/folders/_0/fbrtbm_x4pbf1b72ynjm3v580000gn/T//cc6hqJ1e.s:3679   .debug_str:000000000000057a .LASF60
/var/folders/_0/fbrtbm_x4pbf1b72ynjm3v580000gn/T//cc6hqJ1e.s:3637   .debug_str:00000000000004a6 .LASF61
/var/folders/_0/fbrtbm_x4pbf1b72ynjm3v580000gn/T//cc6hqJ1e.s:3965   .debug_str:0000000000000bd4 .LASF62
GAS LISTING /var/folders/_0/fbrtbm_x4pbf1b72ynjm3v580000gn/T//cc6hqJ1e.s 			page 12


/var/folders/_0/fbrtbm_x4pbf1b72ynjm3v580000gn/T//cc6hqJ1e.s:3529   .debug_str:000000000000022a .LASF63
/var/folders/_0/fbrtbm_x4pbf1b72ynjm3v580000gn/T//cc6hqJ1e.s:4019   .debug_str:0000000000000cec .LASF64
/var/folders/_0/fbrtbm_x4pbf1b72ynjm3v580000gn/T//cc6hqJ1e.s:3759   .debug_str:0000000000000750 .LASF65
/var/folders/_0/fbrtbm_x4pbf1b72ynjm3v580000gn/T//cc6hqJ1e.s:3785   .debug_str:00000000000007e2 .LASF66
/var/folders/_0/fbrtbm_x4pbf1b72ynjm3v580000gn/T//cc6hqJ1e.s:3589   .debug_str:000000000000037a .LASF67
/var/folders/_0/fbrtbm_x4pbf1b72ynjm3v580000gn/T//cc6hqJ1e.s:3533   .debug_str:000000000000023f .LASF72
/var/folders/_0/fbrtbm_x4pbf1b72ynjm3v580000gn/T//cc6hqJ1e.s:3599   .debug_str:00000000000003c4 .LASF68
/var/folders/_0/fbrtbm_x4pbf1b72ynjm3v580000gn/T//cc6hqJ1e.s:3915   .debug_str:0000000000000acd .LASF69
/var/folders/_0/fbrtbm_x4pbf1b72ynjm3v580000gn/T//cc6hqJ1e.s:3995   .debug_str:0000000000000c54 .LASF70
/var/folders/_0/fbrtbm_x4pbf1b72ynjm3v580000gn/T//cc6hqJ1e.s:3549   .debug_str:00000000000002a5 .LASF71
/var/folders/_0/fbrtbm_x4pbf1b72ynjm3v580000gn/T//cc6hqJ1e.s:3723   .debug_str:000000000000068a .LASF73
/var/folders/_0/fbrtbm_x4pbf1b72ynjm3v580000gn/T//cc6hqJ1e.s:3683   .debug_str:000000000000058c .LASF74
/var/folders/_0/fbrtbm_x4pbf1b72ynjm3v580000gn/T//cc6hqJ1e.s:3733   .debug_str:00000000000006c4 .LASF75
/var/folders/_0/fbrtbm_x4pbf1b72ynjm3v580000gn/T//cc6hqJ1e.s:3859   .debug_str:00000000000009a2 .LASF76
/var/folders/_0/fbrtbm_x4pbf1b72ynjm3v580000gn/T//cc6hqJ1e.s:3591   .debug_str:0000000000000386 .LASF77
/var/folders/_0/fbrtbm_x4pbf1b72ynjm3v580000gn/T//cc6hqJ1e.s:3957   .debug_str:0000000000000bb1 .LASF78
/var/folders/_0/fbrtbm_x4pbf1b72ynjm3v580000gn/T//cc6hqJ1e.s:3693   .debug_str:00000000000005d1 .LASF254
/var/folders/_0/fbrtbm_x4pbf1b72ynjm3v580000gn/T//cc6hqJ1e.s:3969   .debug_str:0000000000000bf7 .LASF79
/var/folders/_0/fbrtbm_x4pbf1b72ynjm3v580000gn/T//cc6hqJ1e.s:3971   .debug_str:0000000000000bfe .LASF80
/var/folders/_0/fbrtbm_x4pbf1b72ynjm3v580000gn/T//cc6hqJ1e.s:3973   .debug_str:0000000000000c05 .LASF81
/var/folders/_0/fbrtbm_x4pbf1b72ynjm3v580000gn/T//cc6hqJ1e.s:3975   .debug_str:0000000000000c0c .LASF82
/var/folders/_0/fbrtbm_x4pbf1b72ynjm3v580000gn/T//cc6hqJ1e.s:3977   .debug_str:0000000000000c13 .LASF83
/var/folders/_0/fbrtbm_x4pbf1b72ynjm3v580000gn/T//cc6hqJ1e.s:3979   .debug_str:0000000000000c1a .LASF84
/var/folders/_0/fbrtbm_x4pbf1b72ynjm3v580000gn/T//cc6hqJ1e.s:3981   .debug_str:0000000000000c21 .LASF85
/var/folders/_0/fbrtbm_x4pbf1b72ynjm3v580000gn/T//cc6hqJ1e.s:3983   .debug_str:0000000000000c28 .LASF86
/var/folders/_0/fbrtbm_x4pbf1b72ynjm3v580000gn/T//cc6hqJ1e.s:3985   .debug_str:0000000000000c2f .LASF87
/var/folders/_0/fbrtbm_x4pbf1b72ynjm3v580000gn/T//cc6hqJ1e.s:3987   .debug_str:0000000000000c36 .LASF88
/var/folders/_0/fbrtbm_x4pbf1b72ynjm3v580000gn/T//cc6hqJ1e.s:3657   .debug_str:000000000000051f .LASF89
/var/folders/_0/fbrtbm_x4pbf1b72ynjm3v580000gn/T//cc6hqJ1e.s:3659   .debug_str:0000000000000527 .LASF90
/var/folders/_0/fbrtbm_x4pbf1b72ynjm3v580000gn/T//cc6hqJ1e.s:3661   .debug_str:000000000000052f .LASF91
/var/folders/_0/fbrtbm_x4pbf1b72ynjm3v580000gn/T//cc6hqJ1e.s:3663   .debug_str:0000000000000537 .LASF92
/var/folders/_0/fbrtbm_x4pbf1b72ynjm3v580000gn/T//cc6hqJ1e.s:3665   .debug_str:000000000000053f .LASF93
/var/folders/_0/fbrtbm_x4pbf1b72ynjm3v580000gn/T//cc6hqJ1e.s:3667   .debug_str:0000000000000547 .LASF94
/var/folders/_0/fbrtbm_x4pbf1b72ynjm3v580000gn/T//cc6hqJ1e.s:3669   .debug_str:000000000000054f .LASF95
/var/folders/_0/fbrtbm_x4pbf1b72ynjm3v580000gn/T//cc6hqJ1e.s:3671   .debug_str:0000000000000557 .LASF96
/var/folders/_0/fbrtbm_x4pbf1b72ynjm3v580000gn/T//cc6hqJ1e.s:3673   .debug_str:000000000000055f .LASF97
/var/folders/_0/fbrtbm_x4pbf1b72ynjm3v580000gn/T//cc6hqJ1e.s:3903   .debug_str:0000000000000a7b .LASF98
/var/folders/_0/fbrtbm_x4pbf1b72ynjm3v580000gn/T//cc6hqJ1e.s:3521   .debug_str:00000000000001ed .LASF99
/var/folders/_0/fbrtbm_x4pbf1b72ynjm3v580000gn/T//cc6hqJ1e.s:3731   .debug_str:00000000000006b3 .LASF100
/var/folders/_0/fbrtbm_x4pbf1b72ynjm3v580000gn/T//cc6hqJ1e.s:3647   .debug_str:00000000000004e9 .LASF101
/var/folders/_0/fbrtbm_x4pbf1b72ynjm3v580000gn/T//cc6hqJ1e.s:3611   .debug_str:0000000000000425 .LASF102
/var/folders/_0/fbrtbm_x4pbf1b72ynjm3v580000gn/T//cc6hqJ1e.s:3527   .debug_str:000000000000021b .LASF103
/var/folders/_0/fbrtbm_x4pbf1b72ynjm3v580000gn/T//cc6hqJ1e.s:3887   .debug_str:0000000000000a38 .LASF104
/var/folders/_0/fbrtbm_x4pbf1b72ynjm3v580000gn/T//cc6hqJ1e.s:3889   .debug_str:0000000000000a41 .LASF105
/var/folders/_0/fbrtbm_x4pbf1b72ynjm3v580000gn/T//cc6hqJ1e.s:3779   .debug_str:00000000000007ca .LASF106
/var/folders/_0/fbrtbm_x4pbf1b72ynjm3v580000gn/T//cc6hqJ1e.s:3943   .debug_str:0000000000000b72 .LASF107
/var/folders/_0/fbrtbm_x4pbf1b72ynjm3v580000gn/T//cc6hqJ1e.s:3711   .debug_str:000000000000063e .LASF108
/var/folders/_0/fbrtbm_x4pbf1b72ynjm3v580000gn/T//cc6hqJ1e.s:3491   .debug_str:00000000000000c9 .LASF109
/var/folders/_0/fbrtbm_x4pbf1b72ynjm3v580000gn/T//cc6hqJ1e.s:3493   .debug_str:00000000000000d4 .LASF110
/var/folders/_0/fbrtbm_x4pbf1b72ynjm3v580000gn/T//cc6hqJ1e.s:3495   .debug_str:00000000000000df .LASF111
/var/folders/_0/fbrtbm_x4pbf1b72ynjm3v580000gn/T//cc6hqJ1e.s:3497   .debug_str:00000000000000ea .LASF112
/var/folders/_0/fbrtbm_x4pbf1b72ynjm3v580000gn/T//cc6hqJ1e.s:3499   .debug_str:00000000000000f5 .LASF113
/var/folders/_0/fbrtbm_x4pbf1b72ynjm3v580000gn/T//cc6hqJ1e.s:3501   .debug_str:0000000000000100 .LASF114
/var/folders/_0/fbrtbm_x4pbf1b72ynjm3v580000gn/T//cc6hqJ1e.s:3807   .debug_str:000000000000084c .LASF115
/var/folders/_0/fbrtbm_x4pbf1b72ynjm3v580000gn/T//cc6hqJ1e.s:3583   .debug_str:000000000000035b .LASF116
/var/folders/_0/fbrtbm_x4pbf1b72ynjm3v580000gn/T//cc6hqJ1e.s:3585   .debug_str:0000000000000364 .LASF117
/var/folders/_0/fbrtbm_x4pbf1b72ynjm3v580000gn/T//cc6hqJ1e.s:3507   .debug_str:0000000000000129 .LASF118
GAS LISTING /var/folders/_0/fbrtbm_x4pbf1b72ynjm3v580000gn/T//cc6hqJ1e.s 			page 13


/var/folders/_0/fbrtbm_x4pbf1b72ynjm3v580000gn/T//cc6hqJ1e.s:3509   .debug_str:0000000000000134 .LASF119
/var/folders/_0/fbrtbm_x4pbf1b72ynjm3v580000gn/T//cc6hqJ1e.s:3473   .debug_str:0000000000000073 .LASF120
/var/folders/_0/fbrtbm_x4pbf1b72ynjm3v580000gn/T//cc6hqJ1e.s:3475   .debug_str:000000000000007d .LASF121
/var/folders/_0/fbrtbm_x4pbf1b72ynjm3v580000gn/T//cc6hqJ1e.s:3959   .debug_str:0000000000000bba .LASF122
/var/folders/_0/fbrtbm_x4pbf1b72ynjm3v580000gn/T//cc6hqJ1e.s:3961   .debug_str:0000000000000bc3 .LASF123
/var/folders/_0/fbrtbm_x4pbf1b72ynjm3v580000gn/T//cc6hqJ1e.s:3615   .debug_str:0000000000000447 .LASF124
/var/folders/_0/fbrtbm_x4pbf1b72ynjm3v580000gn/T//cc6hqJ1e.s:3617   .debug_str:0000000000000450 .LASF125
/var/folders/_0/fbrtbm_x4pbf1b72ynjm3v580000gn/T//cc6hqJ1e.s:3927   .debug_str:0000000000000b12 .LASF126
/var/folders/_0/fbrtbm_x4pbf1b72ynjm3v580000gn/T//cc6hqJ1e.s:3465   .debug_str:000000000000004f .LASF127
/var/folders/_0/fbrtbm_x4pbf1b72ynjm3v580000gn/T//cc6hqJ1e.s:3593   .debug_str:000000000000038e .LASF128
/var/folders/_0/fbrtbm_x4pbf1b72ynjm3v580000gn/T//cc6hqJ1e.s:3831   .debug_str:00000000000008d4 .LASF129
/var/folders/_0/fbrtbm_x4pbf1b72ynjm3v580000gn/T//cc6hqJ1e.s:3695   .debug_str:00000000000005e1 .LASF130
/var/folders/_0/fbrtbm_x4pbf1b72ynjm3v580000gn/T//cc6hqJ1e.s:3735   .debug_str:00000000000006d2 .LASF131
/var/folders/_0/fbrtbm_x4pbf1b72ynjm3v580000gn/T//cc6hqJ1e.s:3737   .debug_str:00000000000006dc .LASF132
/var/folders/_0/fbrtbm_x4pbf1b72ynjm3v580000gn/T//cc6hqJ1e.s:3739   .debug_str:00000000000006e6 .LASF133
/var/folders/_0/fbrtbm_x4pbf1b72ynjm3v580000gn/T//cc6hqJ1e.s:3741   .debug_str:00000000000006f0 .LASF134
/var/folders/_0/fbrtbm_x4pbf1b72ynjm3v580000gn/T//cc6hqJ1e.s:3743   .debug_str:00000000000006fa .LASF135
/var/folders/_0/fbrtbm_x4pbf1b72ynjm3v580000gn/T//cc6hqJ1e.s:3727   .debug_str:00000000000006a1 .LASF136
/var/folders/_0/fbrtbm_x4pbf1b72ynjm3v580000gn/T//cc6hqJ1e.s:3729   .debug_str:00000000000006aa .LASF137
/var/folders/_0/fbrtbm_x4pbf1b72ynjm3v580000gn/T//cc6hqJ1e.s:3489   .debug_str:00000000000000be .LASF138
/var/folders/_0/fbrtbm_x4pbf1b72ynjm3v580000gn/T//cc6hqJ1e.s:3581   .debug_str:0000000000000352 .LASF139
/var/folders/_0/fbrtbm_x4pbf1b72ynjm3v580000gn/T//cc6hqJ1e.s:3505   .debug_str:000000000000011e .LASF140
/var/folders/_0/fbrtbm_x4pbf1b72ynjm3v580000gn/T//cc6hqJ1e.s:3901   .debug_str:0000000000000a74 .LASF141
/var/folders/_0/fbrtbm_x4pbf1b72ynjm3v580000gn/T//cc6hqJ1e.s:3783   .debug_str:00000000000007db .LASF142
/var/folders/_0/fbrtbm_x4pbf1b72ynjm3v580000gn/T//cc6hqJ1e.s:3899   .debug_str:0000000000000a6c .LASF143
/var/folders/_0/fbrtbm_x4pbf1b72ynjm3v580000gn/T//cc6hqJ1e.s:3573   .debug_str:0000000000000323 .LASF144
/var/folders/_0/fbrtbm_x4pbf1b72ynjm3v580000gn/T//cc6hqJ1e.s:3823   .debug_str:00000000000008a6 .LASF145
/var/folders/_0/fbrtbm_x4pbf1b72ynjm3v580000gn/T//cc6hqJ1e.s:3891   .debug_str:0000000000000a4a .LASF146
/var/folders/_0/fbrtbm_x4pbf1b72ynjm3v580000gn/T//cc6hqJ1e.s:3989   .debug_str:0000000000000c3d .LASF147
/var/folders/_0/fbrtbm_x4pbf1b72ynjm3v580000gn/T//cc6hqJ1e.s:3845   .debug_str:0000000000000945 .LASF148
/var/folders/_0/fbrtbm_x4pbf1b72ynjm3v580000gn/T//cc6hqJ1e.s:3451   .debug_str:000000000000000b .LASF149
/var/folders/_0/fbrtbm_x4pbf1b72ynjm3v580000gn/T//cc6hqJ1e.s:3531   .debug_str:0000000000000239 .LASF150
/var/folders/_0/fbrtbm_x4pbf1b72ynjm3v580000gn/T//cc6hqJ1e.s:3847   .debug_str:000000000000094d .LASF151
/var/folders/_0/fbrtbm_x4pbf1b72ynjm3v580000gn/T//cc6hqJ1e.s:3811   .debug_str:0000000000000861 .LASF152
/var/folders/_0/fbrtbm_x4pbf1b72ynjm3v580000gn/T//cc6hqJ1e.s:3455   .debug_str:000000000000001f .LASF153
/var/folders/_0/fbrtbm_x4pbf1b72ynjm3v580000gn/T//cc6hqJ1e.s:3883   .debug_str:0000000000000a28 .LASF154
/var/folders/_0/fbrtbm_x4pbf1b72ynjm3v580000gn/T//cc6hqJ1e.s:3955   .debug_str:0000000000000ba9 .LASF155
/var/folders/_0/fbrtbm_x4pbf1b72ynjm3v580000gn/T//cc6hqJ1e.s:3697   .debug_str:00000000000005e8 .LASF156
/var/folders/_0/fbrtbm_x4pbf1b72ynjm3v580000gn/T//cc6hqJ1e.s:3879   .debug_str:0000000000000a18 .LASF157
/var/folders/_0/fbrtbm_x4pbf1b72ynjm3v580000gn/T//cc6hqJ1e.s:3705   .debug_str:000000000000061b .LASF162
/var/folders/_0/fbrtbm_x4pbf1b72ynjm3v580000gn/T//cc6hqJ1e.s:3895   .debug_str:0000000000000a60 .LASF158
/var/folders/_0/fbrtbm_x4pbf1b72ynjm3v580000gn/T//cc6hqJ1e.s:3709   .debug_str:0000000000000636 .LASF159
/var/folders/_0/fbrtbm_x4pbf1b72ynjm3v580000gn/T//cc6hqJ1e.s:3767   .debug_str:000000000000077b .LASF160
/var/folders/_0/fbrtbm_x4pbf1b72ynjm3v580000gn/T//cc6hqJ1e.s:3653   .debug_str:0000000000000510 .LASF161
/var/folders/_0/fbrtbm_x4pbf1b72ynjm3v580000gn/T//cc6hqJ1e.s:3481   .debug_str:0000000000000099 .LASF163
/var/folders/_0/fbrtbm_x4pbf1b72ynjm3v580000gn/T//cc6hqJ1e.s:3487   .debug_str:00000000000000b5 .LASF164
/var/folders/_0/fbrtbm_x4pbf1b72ynjm3v580000gn/T//cc6hqJ1e.s:4011   .debug_str:0000000000000cc0 .LASF165
/var/folders/_0/fbrtbm_x4pbf1b72ynjm3v580000gn/T//cc6hqJ1e.s:3997   .debug_str:0000000000000c67 .LASF166
/var/folders/_0/fbrtbm_x4pbf1b72ynjm3v580000gn/T//cc6hqJ1e.s:3789   .debug_str:00000000000007fe .LASF167
/var/folders/_0/fbrtbm_x4pbf1b72ynjm3v580000gn/T//cc6hqJ1e.s:3571   .debug_str:000000000000031a .LASF168
/var/folders/_0/fbrtbm_x4pbf1b72ynjm3v580000gn/T//cc6hqJ1e.s:3925   .debug_str:0000000000000b08 .LASF169
/var/folders/_0/fbrtbm_x4pbf1b72ynjm3v580000gn/T//cc6hqJ1e.s:3821   .debug_str:000000000000089c .LASF170
/var/folders/_0/fbrtbm_x4pbf1b72ynjm3v580000gn/T//cc6hqJ1e.s:3825   .debug_str:00000000000008b2 .LASF171
/var/folders/_0/fbrtbm_x4pbf1b72ynjm3v580000gn/T//cc6hqJ1e.s:4009   .debug_str:0000000000000cb5 .LASF172
/var/folders/_0/fbrtbm_x4pbf1b72ynjm3v580000gn/T//cc6hqJ1e.s:3541   .debug_str:0000000000000273 .LASF173
/var/folders/_0/fbrtbm_x4pbf1b72ynjm3v580000gn/T//cc6hqJ1e.s:4007   .debug_str:0000000000000cad .LASF174
/var/folders/_0/fbrtbm_x4pbf1b72ynjm3v580000gn/T//cc6hqJ1e.s:3861   .debug_str:00000000000009b9 .LASF175
GAS LISTING /var/folders/_0/fbrtbm_x4pbf1b72ynjm3v580000gn/T//cc6hqJ1e.s 			page 14


/var/folders/_0/fbrtbm_x4pbf1b72ynjm3v580000gn/T//cc6hqJ1e.s:3923   .debug_str:0000000000000aff .LASF176
/var/folders/_0/fbrtbm_x4pbf1b72ynjm3v580000gn/T//cc6hqJ1e.s:3941   .debug_str:0000000000000b6a .LASF177
/var/folders/_0/fbrtbm_x4pbf1b72ynjm3v580000gn/T//cc6hqJ1e.s:3805   .debug_str:0000000000000844 .LASF178
/var/folders/_0/fbrtbm_x4pbf1b72ynjm3v580000gn/T//cc6hqJ1e.s:3621   .debug_str:0000000000000463 .LASF179
/var/folders/_0/fbrtbm_x4pbf1b72ynjm3v580000gn/T//cc6hqJ1e.s:3627   .debug_str:0000000000000479 .LASF180
/var/folders/_0/fbrtbm_x4pbf1b72ynjm3v580000gn/T//cc6hqJ1e.s:3939   .debug_str:0000000000000b63 .LASF181
/var/folders/_0/fbrtbm_x4pbf1b72ynjm3v580000gn/T//cc6hqJ1e.s:3873   .debug_str:00000000000009f6 .LASF182
/var/folders/_0/fbrtbm_x4pbf1b72ynjm3v580000gn/T//cc6hqJ1e.s:3557   .debug_str:00000000000002c9 .LASF183
/var/folders/_0/fbrtbm_x4pbf1b72ynjm3v580000gn/T//cc6hqJ1e.s:3999   .debug_str:0000000000000c71 .LASF184
/var/folders/_0/fbrtbm_x4pbf1b72ynjm3v580000gn/T//cc6hqJ1e.s:3803   .debug_str:000000000000083d .LASF185
/var/folders/_0/fbrtbm_x4pbf1b72ynjm3v580000gn/T//cc6hqJ1e.s:3543   .debug_str:0000000000000281 .LASF186
/var/folders/_0/fbrtbm_x4pbf1b72ynjm3v580000gn/T//cc6hqJ1e.s:3931   .debug_str:0000000000000b2e .LASF187
/var/folders/_0/fbrtbm_x4pbf1b72ynjm3v580000gn/T//cc6hqJ1e.s:3651   .debug_str:0000000000000508 .LASF188
/var/folders/_0/fbrtbm_x4pbf1b72ynjm3v580000gn/T//cc6hqJ1e.s:3463   .debug_str:0000000000000049 .LASF189
/var/folders/_0/fbrtbm_x4pbf1b72ynjm3v580000gn/T//cc6hqJ1e.s:3467   .debug_str:0000000000000057 .LASF190
/var/folders/_0/fbrtbm_x4pbf1b72ynjm3v580000gn/T//cc6hqJ1e.s:3841   .debug_str:0000000000000937 .LASF191
/var/folders/_0/fbrtbm_x4pbf1b72ynjm3v580000gn/T//cc6hqJ1e.s:3631   .debug_str:0000000000000484 .LASF192
/var/folders/_0/fbrtbm_x4pbf1b72ynjm3v580000gn/T//cc6hqJ1e.s:3793   .debug_str:000000000000080d .LASF193
/var/folders/_0/fbrtbm_x4pbf1b72ynjm3v580000gn/T//cc6hqJ1e.s:3485   .debug_str:00000000000000af .LASF194
/var/folders/_0/fbrtbm_x4pbf1b72ynjm3v580000gn/T//cc6hqJ1e.s:3869   .debug_str:00000000000009e1 .LASF195
/var/folders/_0/fbrtbm_x4pbf1b72ynjm3v580000gn/T//cc6hqJ1e.s:3843   .debug_str:000000000000093d .LASF196
/var/folders/_0/fbrtbm_x4pbf1b72ynjm3v580000gn/T//cc6hqJ1e.s:3897   .debug_str:0000000000000a66 .LASF197
/var/folders/_0/fbrtbm_x4pbf1b72ynjm3v580000gn/T//cc6hqJ1e.s:3511   .debug_str:000000000000013f .LASF198
/var/folders/_0/fbrtbm_x4pbf1b72ynjm3v580000gn/T//cc6hqJ1e.s:3799   .debug_str:0000000000000829 .LASF199
/var/folders/_0/fbrtbm_x4pbf1b72ynjm3v580000gn/T//cc6hqJ1e.s:3691   .debug_str:00000000000005c9 .LASF200
/var/folders/_0/fbrtbm_x4pbf1b72ynjm3v580000gn/T//cc6hqJ1e.s:3607   .debug_str:000000000000040b .LASF201
/var/folders/_0/fbrtbm_x4pbf1b72ynjm3v580000gn/T//cc6hqJ1e.s:3699   .debug_str:00000000000005fa .LASF202
/var/folders/_0/fbrtbm_x4pbf1b72ynjm3v580000gn/T//cc6hqJ1e.s:3641   .debug_str:00000000000004c7 .LASF203
/var/folders/_0/fbrtbm_x4pbf1b72ynjm3v580000gn/T//cc6hqJ1e.s:3865   .debug_str:00000000000009cd .LASF204
/var/folders/_0/fbrtbm_x4pbf1b72ynjm3v580000gn/T//cc6hqJ1e.s:3795   .debug_str:0000000000000813 .LASF205
/var/folders/_0/fbrtbm_x4pbf1b72ynjm3v580000gn/T//cc6hqJ1e.s:3933   .debug_str:0000000000000b37 .LASF206
/var/folders/_0/fbrtbm_x4pbf1b72ynjm3v580000gn/T//cc6hqJ1e.s:3773   .debug_str:00000000000007a2 .LASF207
/var/folders/_0/fbrtbm_x4pbf1b72ynjm3v580000gn/T//cc6hqJ1e.s:3603   .debug_str:00000000000003e5 .LASF208
/var/folders/_0/fbrtbm_x4pbf1b72ynjm3v580000gn/T//cc6hqJ1e.s:3953   .debug_str:0000000000000ba1 .LASF209
/var/folders/_0/fbrtbm_x4pbf1b72ynjm3v580000gn/T//cc6hqJ1e.s:3689   .debug_str:00000000000005be .LASF210
/var/folders/_0/fbrtbm_x4pbf1b72ynjm3v580000gn/T//cc6hqJ1e.s:3715   .debug_str:0000000000000656 .LASF211
/var/folders/_0/fbrtbm_x4pbf1b72ynjm3v580000gn/T//cc6hqJ1e.s:3963   .debug_str:0000000000000bcc .LASF212
/var/folders/_0/fbrtbm_x4pbf1b72ynjm3v580000gn/T//cc6hqJ1e.s:3553   .debug_str:00000000000002ba .LASF213
/var/folders/_0/fbrtbm_x4pbf1b72ynjm3v580000gn/T//cc6hqJ1e.s:3681   .debug_str:0000000000000587 .LASF214
/var/folders/_0/fbrtbm_x4pbf1b72ynjm3v580000gn/T//cc6hqJ1e.s:3761   .debug_str:0000000000000765 .LASF215
/var/folders/_0/fbrtbm_x4pbf1b72ynjm3v580000gn/T//cc6hqJ1e.s:3471   .debug_str:000000000000006b .LASF216
/var/folders/_0/fbrtbm_x4pbf1b72ynjm3v580000gn/T//cc6hqJ1e.s:3675   .debug_str:0000000000000567 .LASF217
/var/folders/_0/fbrtbm_x4pbf1b72ynjm3v580000gn/T//cc6hqJ1e.s:3791   .debug_str:0000000000000808 .LASF218
/var/folders/_0/fbrtbm_x4pbf1b72ynjm3v580000gn/T//cc6hqJ1e.s:3717   .debug_str:0000000000000660 .LASF219
/var/folders/_0/fbrtbm_x4pbf1b72ynjm3v580000gn/T//cc6hqJ1e.s:3655   .debug_str:0000000000000515 .LASF220
/var/folders/_0/fbrtbm_x4pbf1b72ynjm3v580000gn/T//cc6hqJ1e.s:3749   .debug_str:0000000000000715 .LASF221
/var/folders/_0/fbrtbm_x4pbf1b72ynjm3v580000gn/T//cc6hqJ1e.s:3457   .debug_str:0000000000000027 .LASF222
/var/folders/_0/fbrtbm_x4pbf1b72ynjm3v580000gn/T//cc6hqJ1e.s:3625   .debug_str:0000000000000474 .LASF223
/var/folders/_0/fbrtbm_x4pbf1b72ynjm3v580000gn/T//cc6hqJ1e.s:3881   .debug_str:0000000000000a21 .LASF224
/var/folders/_0/fbrtbm_x4pbf1b72ynjm3v580000gn/T//cc6hqJ1e.s:3765   .debug_str:0000000000000775 .LASF225
/var/folders/_0/fbrtbm_x4pbf1b72ynjm3v580000gn/T//cc6hqJ1e.s:3745   .debug_str:0000000000000704 .LASF226
/var/folders/_0/fbrtbm_x4pbf1b72ynjm3v580000gn/T//cc6hqJ1e.s:3763   .debug_str:000000000000076f .LASF227
/var/folders/_0/fbrtbm_x4pbf1b72ynjm3v580000gn/T//cc6hqJ1e.s:3863   .debug_str:00000000000009c5 .LASF228
/var/folders/_0/fbrtbm_x4pbf1b72ynjm3v580000gn/T//cc6hqJ1e.s:3835   .debug_str:0000000000000920 .LASF229
/var/folders/_0/fbrtbm_x4pbf1b72ynjm3v580000gn/T//cc6hqJ1e.s:3517   .debug_str:00000000000001db .LASF230
/var/folders/_0/fbrtbm_x4pbf1b72ynjm3v580000gn/T//cc6hqJ1e.s:3993   .debug_str:0000000000000c4f .LASF231
/var/folders/_0/fbrtbm_x4pbf1b72ynjm3v580000gn/T//cc6hqJ1e.s:3587   .debug_str:000000000000036d .LASF232
GAS LISTING /var/folders/_0/fbrtbm_x4pbf1b72ynjm3v580000gn/T//cc6hqJ1e.s 			page 15


/var/folders/_0/fbrtbm_x4pbf1b72ynjm3v580000gn/T//cc6hqJ1e.s:3875   .debug_str:00000000000009fc .LASF233
/var/folders/_0/fbrtbm_x4pbf1b72ynjm3v580000gn/T//cc6hqJ1e.s:3469   .debug_str:000000000000005e .LASF234
/var/folders/_0/fbrtbm_x4pbf1b72ynjm3v580000gn/T//cc6hqJ1e.s:3567   .debug_str:00000000000002fa .LASF235
/var/folders/_0/fbrtbm_x4pbf1b72ynjm3v580000gn/T//cc6hqJ1e.s:3757   .debug_str:0000000000000741 .LASF236
/var/folders/_0/fbrtbm_x4pbf1b72ynjm3v580000gn/T//cc6hqJ1e.s:3801   .debug_str:0000000000000832 .LASF237
/var/folders/_0/fbrtbm_x4pbf1b72ynjm3v580000gn/T//cc6hqJ1e.s:3885   .debug_str:0000000000000a33 .LASF238
/var/folders/_0/fbrtbm_x4pbf1b72ynjm3v580000gn/T//cc6hqJ1e.s:3913   .debug_str:0000000000000ac0 .LASF239
/var/folders/_0/fbrtbm_x4pbf1b72ynjm3v580000gn/T//cc6hqJ1e.s:3853   .debug_str:0000000000000971 .LASF240
/var/folders/_0/fbrtbm_x4pbf1b72ynjm3v580000gn/T//cc6hqJ1e.s:3797   .debug_str:000000000000081b .LASF241
/var/folders/_0/fbrtbm_x4pbf1b72ynjm3v580000gn/T//cc6hqJ1e.s:3849   .debug_str:0000000000000954 .LASF242
/var/folders/_0/fbrtbm_x4pbf1b72ynjm3v580000gn/T//cc6hqJ1e.s:3701   .debug_str:0000000000000601 .LASF243
/var/folders/_0/fbrtbm_x4pbf1b72ynjm3v580000gn/T//cc6hqJ1e.s:4013   .debug_str:0000000000000cc9 .LASF244
/var/folders/_0/fbrtbm_x4pbf1b72ynjm3v580000gn/T//cc6hqJ1e.s:3547   .debug_str:0000000000000297 .LASF245
/var/folders/_0/fbrtbm_x4pbf1b72ynjm3v580000gn/T//cc6hqJ1e.s:3877   .debug_str:0000000000000a09 .LASF246
/var/folders/_0/fbrtbm_x4pbf1b72ynjm3v580000gn/T//cc6hqJ1e.s:4003   .debug_str:0000000000000c84 .LASF247
/var/folders/_0/fbrtbm_x4pbf1b72ynjm3v580000gn/T//cc6hqJ1e.s:3787   .debug_str:00000000000007ef .LASF248
/var/folders/_0/fbrtbm_x4pbf1b72ynjm3v580000gn/T//cc6hqJ1e.s:3483   .debug_str:000000000000009e .LASF249
/var/folders/_0/fbrtbm_x4pbf1b72ynjm3v580000gn/T//cc6hqJ1e.s:3781   .debug_str:00000000000007d2 .LASF250
/var/folders/_0/fbrtbm_x4pbf1b72ynjm3v580000gn/T//cc6hqJ1e.s:3945   .debug_str:0000000000000b7b .LASF251
/var/folders/_0/fbrtbm_x4pbf1b72ynjm3v580000gn/T//cc6hqJ1e.s:3753   .debug_str:000000000000072d .LASF252
/var/folders/_0/fbrtbm_x4pbf1b72ynjm3v580000gn/T//cc6hqJ1e.s:3479   .debug_str:0000000000000091 .LASF253
/var/folders/_0/fbrtbm_x4pbf1b72ynjm3v580000gn/T//cc6hqJ1e.s:3453   .debug_str:0000000000000014 .LASF282
/var/folders/_0/fbrtbm_x4pbf1b72ynjm3v580000gn/T//cc6hqJ1e.s:3551   .debug_str:00000000000002ae .LASF255
/var/folders/_0/fbrtbm_x4pbf1b72ynjm3v580000gn/T//cc6hqJ1e.s:3609   .debug_str:0000000000000412 .LASF256
/var/folders/_0/fbrtbm_x4pbf1b72ynjm3v580000gn/T//cc6hqJ1e.s:3921   .debug_str:0000000000000af5 .LASF257
/var/folders/_0/fbrtbm_x4pbf1b72ynjm3v580000gn/T//cc6hqJ1e.s:3755   .debug_str:0000000000000736 .LASF258
/var/folders/_0/fbrtbm_x4pbf1b72ynjm3v580000gn/T//cc6hqJ1e.s:3525   .debug_str:000000000000020b .LASF259
/var/folders/_0/fbrtbm_x4pbf1b72ynjm3v580000gn/T//cc6hqJ1e.s:3597   .debug_str:00000000000003b4 .LASF260
/var/folders/_0/fbrtbm_x4pbf1b72ynjm3v580000gn/T//cc6hqJ1e.s:3827   .debug_str:00000000000008bc .LASF283
/var/folders/_0/fbrtbm_x4pbf1b72ynjm3v580000gn/T//cc6hqJ1e.s:3629   .debug_str:000000000000047e .LASF261
/var/folders/_0/fbrtbm_x4pbf1b72ynjm3v580000gn/T//cc6hqJ1e.s:3555   .debug_str:00000000000002c4 .LASF262
/var/folders/_0/fbrtbm_x4pbf1b72ynjm3v580000gn/T//cc6hqJ1e.s:3809   .debug_str:0000000000000856 .LASF263
/var/folders/_0/fbrtbm_x4pbf1b72ynjm3v580000gn/T//cc6hqJ1e.s:204    .text.usb_mdelay:0000000000000000 .LFB10
/var/folders/_0/fbrtbm_x4pbf1b72ynjm3v580000gn/T//cc6hqJ1e.s:219    .text.usb_mdelay:0000000000000008 .LFE10
/var/folders/_0/fbrtbm_x4pbf1b72ynjm3v580000gn/T//cc6hqJ1e.s:3837   .debug_str:0000000000000926 .LASF265
/var/folders/_0/fbrtbm_x4pbf1b72ynjm3v580000gn/T//cc6hqJ1e.s:3304   .debug_loc:0000000000000000 .LLST5
/var/folders/_0/fbrtbm_x4pbf1b72ynjm3v580000gn/T//cc6hqJ1e.s:209    .text.usb_mdelay:0000000000000000 .LBB8
/var/folders/_0/fbrtbm_x4pbf1b72ynjm3v580000gn/T//cc6hqJ1e.s:217    .text.usb_mdelay:0000000000000008 .LBE8
/var/folders/_0/fbrtbm_x4pbf1b72ynjm3v580000gn/T//cc6hqJ1e.s:3318   .debug_loc:0000000000000021 .LLST6
/var/folders/_0/fbrtbm_x4pbf1b72ynjm3v580000gn/T//cc6hqJ1e.s:215    .text.usb_mdelay:0000000000000008 .LVL13
/var/folders/_0/fbrtbm_x4pbf1b72ynjm3v580000gn/T//cc6hqJ1e.s:3575   .debug_str:000000000000032b .LASF264
/var/folders/_0/fbrtbm_x4pbf1b72ynjm3v580000gn/T//cc6hqJ1e.s:183    .text.usb_udelay:0000000000000000 .LFB9
/var/folders/_0/fbrtbm_x4pbf1b72ynjm3v580000gn/T//cc6hqJ1e.s:197    .text.usb_udelay:0000000000000008 .LFE9
/var/folders/_0/fbrtbm_x4pbf1b72ynjm3v580000gn/T//cc6hqJ1e.s:3813   .debug_str:0000000000000869 .LASF266
/var/folders/_0/fbrtbm_x4pbf1b72ynjm3v580000gn/T//cc6hqJ1e.s:3332   .debug_loc:0000000000000042 .LLST3
/var/folders/_0/fbrtbm_x4pbf1b72ynjm3v580000gn/T//cc6hqJ1e.s:188    .text.usb_udelay:0000000000000000 .LBB6
/var/folders/_0/fbrtbm_x4pbf1b72ynjm3v580000gn/T//cc6hqJ1e.s:195    .text.usb_udelay:0000000000000008 .LBE6
/var/folders/_0/fbrtbm_x4pbf1b72ynjm3v580000gn/T//cc6hqJ1e.s:3346   .debug_loc:0000000000000063 .LLST4
/var/folders/_0/fbrtbm_x4pbf1b72ynjm3v580000gn/T//cc6hqJ1e.s:193    .text.usb_udelay:0000000000000008 .LVL11
/var/folders/_0/fbrtbm_x4pbf1b72ynjm3v580000gn/T//cc6hqJ1e.s:3817   .debug_str:000000000000087a .LASF284
/var/folders/_0/fbrtbm_x4pbf1b72ynjm3v580000gn/T//cc6hqJ1e.s:170    .text.usb_timer_init:0000000000000000 .LFB8
/var/folders/_0/fbrtbm_x4pbf1b72ynjm3v580000gn/T//cc6hqJ1e.s:176    .text.usb_timer_init:0000000000000002 .LFE8
/var/folders/_0/fbrtbm_x4pbf1b72ynjm3v580000gn/T//cc6hqJ1e.s:3545   .debug_str:0000000000000287 .LASF267
/var/folders/_0/fbrtbm_x4pbf1b72ynjm3v580000gn/T//cc6hqJ1e.s:109    .text.usb_intr_config:0000000000000000 .LFB7
/var/folders/_0/fbrtbm_x4pbf1b72ynjm3v580000gn/T//cc6hqJ1e.s:163    .text.usb_intr_config:000000000000005c .LFE7
/var/folders/_0/fbrtbm_x4pbf1b72ynjm3v580000gn/T//cc6hqJ1e.s:3360   .debug_loc:0000000000000084 .LLST2
/var/folders/_0/fbrtbm_x4pbf1b72ynjm3v580000gn/T//cc6hqJ1e.s:126    .text.usb_intr_config:0000000000000014 .LVL4
GAS LISTING /var/folders/_0/fbrtbm_x4pbf1b72ynjm3v580000gn/T//cc6hqJ1e.s 			page 16


/var/folders/_0/fbrtbm_x4pbf1b72ynjm3v580000gn/T//cc6hqJ1e.s:130    .text.usb_intr_config:0000000000000020 .LVL5
/var/folders/_0/fbrtbm_x4pbf1b72ynjm3v580000gn/T//cc6hqJ1e.s:134    .text.usb_intr_config:000000000000002c .LVL6
/var/folders/_0/fbrtbm_x4pbf1b72ynjm3v580000gn/T//cc6hqJ1e.s:140    .text.usb_intr_config:000000000000003c .LVL7
/var/folders/_0/fbrtbm_x4pbf1b72ynjm3v580000gn/T//cc6hqJ1e.s:144    .text.usb_intr_config:0000000000000048 .LVL8
/var/folders/_0/fbrtbm_x4pbf1b72ynjm3v580000gn/T//cc6hqJ1e.s:161    .text.usb_intr_config:000000000000005c .LVL9
/var/folders/_0/fbrtbm_x4pbf1b72ynjm3v580000gn/T//cc6hqJ1e.s:3635   .debug_str:0000000000000497 .LASF268
/var/folders/_0/fbrtbm_x4pbf1b72ynjm3v580000gn/T//cc6hqJ1e.s:14     .text.usb_rcu_config:0000000000000000 .LFB6
/var/folders/_0/fbrtbm_x4pbf1b72ynjm3v580000gn/T//cc6hqJ1e.s:102    .text.usb_rcu_config:000000000000007e .LFE6
/var/folders/_0/fbrtbm_x4pbf1b72ynjm3v580000gn/T//cc6hqJ1e.s:3378   .debug_loc:00000000000000b0 .LLST0
/var/folders/_0/fbrtbm_x4pbf1b72ynjm3v580000gn/T//cc6hqJ1e.s:3721   .debug_str:000000000000067d .LASF285
/var/folders/_0/fbrtbm_x4pbf1b72ynjm3v580000gn/T//cc6hqJ1e.s:3401   .debug_loc:00000000000000e8 .LLST1
/var/folders/_0/fbrtbm_x4pbf1b72ynjm3v580000gn/T//cc6hqJ1e.s:30     .text.usb_rcu_config:000000000000000e .LVL0
/var/folders/_0/fbrtbm_x4pbf1b72ynjm3v580000gn/T//cc6hqJ1e.s:55     .text.usb_rcu_config:000000000000003c .LVL2
/var/folders/_0/fbrtbm_x4pbf1b72ynjm3v580000gn/T//cc6hqJ1e.s:69     .text.usb_rcu_config:000000000000004c .LVL3
/var/folders/_0/fbrtbm_x4pbf1b72ynjm3v580000gn/T//cc6hqJ1e.s:3579   .debug_str:0000000000000344 .LASF269
/var/folders/_0/fbrtbm_x4pbf1b72ynjm3v580000gn/T//cc6hqJ1e.s:3703   .debug_str:000000000000060d .LASF270
/var/folders/_0/fbrtbm_x4pbf1b72ynjm3v580000gn/T//cc6hqJ1e.s:3569   .debug_str:0000000000000309 .LASF271
/var/folders/_0/fbrtbm_x4pbf1b72ynjm3v580000gn/T//cc6hqJ1e.s:4005   .debug_str:0000000000000c95 .LASF272
/var/folders/_0/fbrtbm_x4pbf1b72ynjm3v580000gn/T//cc6hqJ1e.s:3857   .debug_str:0000000000000988 .LASF273
/var/folders/_0/fbrtbm_x4pbf1b72ynjm3v580000gn/T//cc6hqJ1e.s:3619   .debug_str:0000000000000459 .LASF274
/var/folders/_0/fbrtbm_x4pbf1b72ynjm3v580000gn/T//cc6hqJ1e.s:3769   .debug_str:0000000000000781 .LASF275
/var/folders/_0/fbrtbm_x4pbf1b72ynjm3v580000gn/T//cc6hqJ1e.s:3523   .debug_str:00000000000001f8 .LASF276
/var/folders/_0/fbrtbm_x4pbf1b72ynjm3v580000gn/T//cc6hqJ1e.s:3967   .debug_str:0000000000000be2 .LASF277
/var/folders/_0/fbrtbm_x4pbf1b72ynjm3v580000gn/T//cc6hqJ1e.s:207    .text.usb_mdelay:0000000000000000 .LVL12
/var/folders/_0/fbrtbm_x4pbf1b72ynjm3v580000gn/T//cc6hqJ1e.s:186    .text.usb_udelay:0000000000000000 .LVL10
/var/folders/_0/fbrtbm_x4pbf1b72ynjm3v580000gn/T//cc6hqJ1e.s:115    .text.usb_intr_config:0000000000000002 .LCFI3
/var/folders/_0/fbrtbm_x4pbf1b72ynjm3v580000gn/T//cc6hqJ1e.s:157    .text.usb_intr_config:0000000000000054 .LCFI4
/var/folders/_0/fbrtbm_x4pbf1b72ynjm3v580000gn/T//cc6hqJ1e.s:21     .text.usb_rcu_config:0000000000000002 .LCFI0
/var/folders/_0/fbrtbm_x4pbf1b72ynjm3v580000gn/T//cc6hqJ1e.s:65     .text.usb_rcu_config:0000000000000044 .LCFI1
/var/folders/_0/fbrtbm_x4pbf1b72ynjm3v580000gn/T//cc6hqJ1e.s:71     .text.usb_rcu_config:000000000000004c .LCFI2
/var/folders/_0/fbrtbm_x4pbf1b72ynjm3v580000gn/T//cc6hqJ1e.s:53     .text.usb_rcu_config:0000000000000034 .LVL1
/var/folders/_0/fbrtbm_x4pbf1b72ynjm3v580000gn/T//cc6hqJ1e.s:253    .debug_info:0000000000000000 .Ldebug_info0

UNDEFINED SYMBOLS
rcu_clock_freq_get
rcu_usb_clock_config
rcu_periph_clock_enable
eclic_irq_enable
exti_interrupt_flag_clear
exti_init
exti_interrupt_enable
usb_delay_1us
usb_delay_1ms
