GAS LISTING /var/folders/_0/fbrtbm_x4pbf1b72ynjm3v580000gn/T//ccOx4mdW.s 			page 1


   1              		.file	"main.c"
   2              		.option nopic
   3              		.attribute arch, "rv32i2p0_m2p0_a2p0_c2p0"
   4              		.attribute unaligned_access, 0
   5              		.attribute stack_align, 16
   6              		.text
   7              	.Ltext0:
   8              		.cfi_sections	.debug_frame
   9              		.globl	__floatsisf
  10              		.globl	__extendsfdf2
  11              		.globl	__muldf3
  12              		.globl	__adddf3
  13              		.globl	__truncdfsf2
  14              		.globl	__fixsfsi
  15              		.section	.text.startup.main,"ax",@progbits
  16              		.align	1
  17              		.globl	main
  19              	main:
  20              	.LFB7:
  21              		.file 1 "main.c"
   1:main.c        **** /* 
   2:main.c        **** Replace this file with your code. Put your source files in this directory and any libraries in the 
   3:main.c        **** If your main program should be assembly-language replace this file with main.S instead.
   4:main.c        **** 
   5:main.c        **** Libraries (other than vendor SDK and gcc libraries) must have .h-files in /lib/[library name]/inclu
   6:main.c        **** .c-files in /lib/[library name]/src/ to be included automatically.
   7:main.c        **** */
   8:main.c        **** 
   9:main.c        **** #include "gd32vf103.h"
  10:main.c        **** #include "usb_serial_if.h"
  11:main.c        **** #include "usb_delay.h"
  12:main.c        **** #include "cs1237.h"
  13:main.c        **** #include "cs1237_port.h"
  14:main.c        **** #include "stepperUP.h"
  15:main.c        **** #include "drivers.h"
  16:main.c        **** #include <stdlib.h>
  17:main.c        **** #include <string.h>
  18:main.c        **** 
  19:main.c        **** 
  20:main.c        **** #define REVOLUTION 4096
  21:main.c        **** #define QUARTERREV 1024
  22:main.c        **** #define HALFREV 2048
  23:main.c        **** #define SPEED 1
  24:main.c        **** #define BLINKSPEED 500
  25:main.c        **** #define DELAY 500
  26:main.c        **** 
  27:main.c        **** void blink (int *pMs, int *pLight);
  28:main.c        **** void keyPad (int pressedKey, int *pStepBuffer, int *pMoveBuffer);
  29:main.c        **** void motorStep (int *pStepBuffer, int *pDelayBuffer, int *pMoveBuffer);
  30:main.c        **** void printStop (void);
  31:main.c        **** void printGo (void);
  32:main.c        **** 
  33:main.c        **** int main(){
  22              		.loc 1 33 11
  23              		.cfi_startproc
  34:main.c        **** 	int idle =0;
  24              		.loc 1 34 2
GAS LISTING /var/folders/_0/fbrtbm_x4pbf1b72ynjm3v580000gn/T//ccOx4mdW.s 			page 2


  25              	.LVL0:
  35:main.c        **** 	int ms = 0;
  26              		.loc 1 35 2
  33:main.c        **** 	int idle =0;
  27              		.loc 1 33 11 is_stmt 0
  28 0000 7571     		addi	sp,sp,-144
  29              	.LCFI0:
  30              		.cfi_def_cfa_offset 144
  31 0002 22C5     		sw	s0,136(sp)
  32              		.cfi_offset 8, -8
  36:main.c        **** 	int light = 1;
  37:main.c        **** 	int moveBuffer = 0;
  38:main.c        **** 	int delayBuffer = 0;
  39:main.c        **** 	int stepBuffer = 0;
  40:main.c        **** 	int key = 0;
  41:main.c        **** 	int lookUpTbl[16]={1,4,7,14,2,5,8,0,3,6,9,15,10,11,12,13};
  33              		.loc 1 41 6
  34 0004 37040000 		lui	s0,%hi(.LANCHOR0)
  36:main.c        **** 	int light = 1;
  35              		.loc 1 36 6
  36 0008 8547     		li	a5,1
  37              		.loc 1 41 6
  38 000a 13060004 		li	a2,64
  39 000e 93050400 		addi	a1,s0,%lo(.LANCHOR0)
  40 0012 0810     		addi	a0,sp,32
  33:main.c        **** 	int idle =0;
  41              		.loc 1 33 11
  42 0014 06C7     		sw	ra,140(sp)
  36:main.c        **** 	int light = 1;
  43              		.loc 1 36 6
  44 0016 3EC8     		sw	a5,16(sp)
  33:main.c        **** 	int idle =0;
  45              		.loc 1 33 11
  46 0018 CEDE     		sw	s3,124(sp)
  47 001a D2DC     		sw	s4,120(sp)
  48 001c D6DA     		sw	s5,116(sp)
  49 001e 26C3     		sw	s1,132(sp)
  50 0020 4AC1     		sw	s2,128(sp)
  51 0022 DAD8     		sw	s6,112(sp)
  52 0024 DED6     		sw	s7,108(sp)
  53              		.cfi_offset 1, -4
  54              		.cfi_offset 19, -20
  55              		.cfi_offset 20, -24
  56              		.cfi_offset 21, -28
  57              		.cfi_offset 9, -12
  58              		.cfi_offset 18, -16
  59              		.cfi_offset 22, -32
  60              		.cfi_offset 23, -36
  35:main.c        **** 	int light = 1;
  61              		.loc 1 35 6
  62 0026 02C6     		sw	zero,12(sp)
  36:main.c        **** 	int light = 1;
  63              		.loc 1 36 2 is_stmt 1
  37:main.c        **** 	int delayBuffer = 0;
  64              		.loc 1 37 2
  37:main.c        **** 	int delayBuffer = 0;
  65              		.loc 1 37 6 is_stmt 0
GAS LISTING /var/folders/_0/fbrtbm_x4pbf1b72ynjm3v580000gn/T//ccOx4mdW.s 			page 3


  66 0028 02CA     		sw	zero,20(sp)
  38:main.c        **** 	int stepBuffer = 0;
  67              		.loc 1 38 2 is_stmt 1
  38:main.c        **** 	int stepBuffer = 0;
  68              		.loc 1 38 6 is_stmt 0
  69 002a 02CC     		sw	zero,24(sp)
  39:main.c        **** 	int key = 0;
  70              		.loc 1 39 2 is_stmt 1
  39:main.c        **** 	int key = 0;
  71              		.loc 1 39 6 is_stmt 0
  72 002c 02CE     		sw	zero,28(sp)
  40:main.c        **** 	int lookUpTbl[16]={1,4,7,14,2,5,8,0,3,6,9,15,10,11,12,13};
  73              		.loc 1 40 2 is_stmt 1
  74              	.LVL1:
  75              		.loc 1 41 2
  76              		.loc 1 41 6 is_stmt 0
  77 002e 97000000 		call	memcpy
  77      E7800000 
  78              	.LVL2:
  42:main.c        **** 	float loadCell = 0;
  79              		.loc 1 42 2 is_stmt 1
  43:main.c        **** 	int lights = 0;
  80              		.loc 1 43 2
  44:main.c        **** 
  45:main.c        **** 	uint64_t time = 0;
  81              		.loc 1 45 2
  46:main.c        ****     uint64_t last_time = 0;
  82              		.loc 1 46 5
  47:main.c        ****     uint32_t delta_time = 0;
  83              		.loc 1 47 5
  48:main.c        **** 
  49:main.c        ****     
  50:main.c        **** 	
  51:main.c        **** 	initStep();
  84              		.loc 1 51 2
  85 0036 97000000 		call	initStep
  85      E7800000 
  86              	.LVL3:
  52:main.c        **** 	t5omsi();                                     // Initialize timer5 1kHz
  87              		.loc 1 52 2
  88 003e 97000000 		call	t5omsi
  88      E7800000 
  89              	.LVL4:
  53:main.c        ****     colinit();                                    // Initialize column toolbox
  90              		.loc 1 53 5
  91 0046 97000000 		call	colinit
  91      E7800000 
  92              	.LVL5:
  54:main.c        ****     l88init(); 
  93              		.loc 1 54 5
  94 004e 97000000 		call	l88init
  94      E7800000 
  95              	.LVL6:
  55:main.c        **** 	keyinit();
  96              		.loc 1 55 2
  97 0056 97000000 		call	keyinit
  97      E7800000 
GAS LISTING /var/folders/_0/fbrtbm_x4pbf1b72ynjm3v580000gn/T//ccOx4mdW.s 			page 4


  98              	.LVL7:
  56:main.c        **** 
  57:main.c        ****     int32_t adc = 0;
  99              		.loc 1 57 5
  58:main.c        ****     cs1237_setup_pins();
 100              		.loc 1 58 5
 101 005e 97000000 		call	cs1237_setup_pins
 101      E7800000 
 102              	.LVL8:
  59:main.c        ****     cs1237_sample_rate_and_gain(CS1237_40SPS, CS1237_GAIN128);
 103              		.loc 1 59 5
 104 0066 8D45     		li	a1,3
 105 0068 0545     		li	a0,1
 106 006a 97000000 		call	cs1237_sample_rate_and_gain
 106      E7800000 
 107              	.LVL9:
  60:main.c        ****     cs1237_configure(0x3C);
 108              		.loc 1 60 5
 109 0072 1305C003 		li	a0,60
 110 0076 97000000 		call	cs1237_configure
 110      E7800000 
 111              	.LVL10:
  42:main.c        **** 	int lights = 0;
 112              		.loc 1 42 8 is_stmt 0
 113 007e 93090000 		mv	s3,zero
  61:main.c        **** 
  62:main.c        **** 	while(1){
  63:main.c        **** 
  64:main.c        **** 		if (t5expq()) {                           // Manage periodic tasks
  65:main.c        ****             l88row(colset());                     // ...8*8LED and Keyboard
  66:main.c        ****             ms++;                                 // ...One second heart beat
  67:main.c        **** 			
  68:main.c        **** 			while(!cs1237_data_ready());
  69:main.c        ****         	adc = cs1237_read();
  70:main.c        **** 			
  71:main.c        **** 
  72:main.c        **** 			l88mem(1, stepBuffer);
  73:main.c        **** 			l88mem(2, delayBuffer/100);
 114              		.loc 1 73 4
 115 0082 130A4006 		li	s4,100
  74:main.c        **** 			l88mem(3, moveBuffer/100);
  75:main.c        **** 			loadCell = (float)adc*0.005 + loadCell*0.995;
 116              		.loc 1 75 25
 117 0086 13040400 		addi	s0,s0,%lo(.LANCHOR0)
  76:main.c        **** 			lights = (int) loadCell/1000;
 118              		.loc 1 76 11
 119 008a 930A803E 		li	s5,1000
 120              	.LVL11:
 121              	.L2:
  62:main.c        **** 
 122              		.loc 1 62 2 is_stmt 1
  64:main.c        ****             l88row(colset());                     // ...8*8LED and Keyboard
 123              		.loc 1 64 3
  64:main.c        ****             l88row(colset());                     // ...8*8LED and Keyboard
 124              		.loc 1 64 7 is_stmt 0
 125 008e 97000000 		call	t5expq
 125      E7800000 
GAS LISTING /var/folders/_0/fbrtbm_x4pbf1b72ynjm3v580000gn/T//ccOx4mdW.s 			page 5


 126              	.LVL12:
  64:main.c        ****             l88row(colset());                     // ...8*8LED and Keyboard
 127              		.loc 1 64 6
 128 0096 65DD     		beq	a0,zero,.L2
  65:main.c        ****             ms++;                                 // ...One second heart beat
 129              		.loc 1 65 13 is_stmt 1
 130 0098 97000000 		call	colset
 130      E7800000 
 131              	.LVL13:
 132 00a0 97000000 		call	l88row
 132      E7800000 
 133              	.LVL14:
  66:main.c        **** 			
 134              		.loc 1 66 13
  66:main.c        **** 			
 135              		.loc 1 66 15 is_stmt 0
 136 00a8 B247     		lw	a5,12(sp)
 137 00aa 8507     		addi	a5,a5,1
 138 00ac 3EC6     		sw	a5,12(sp)
  68:main.c        ****         	adc = cs1237_read();
 139              		.loc 1 68 4 is_stmt 1
 140              	.L3:
  68:main.c        ****         	adc = cs1237_read();
 141              		.loc 1 68 31 discriminator 1
  68:main.c        ****         	adc = cs1237_read();
 142              		.loc 1 68 11 is_stmt 0 discriminator 1
 143 00ae 97000000 		call	cs1237_data_ready
 143      E7800000 
 144              	.LVL15:
  68:main.c        ****         	adc = cs1237_read();
 145              		.loc 1 68 9 discriminator 1
 146 00b6 65DD     		beq	a0,zero,.L3
  69:main.c        **** 			
 147              		.loc 1 69 10 is_stmt 1
  69:main.c        **** 			
 148              		.loc 1 69 16 is_stmt 0
 149 00b8 97000000 		call	cs1237_read
 149      E7800000 
 150              	.LVL16:
  72:main.c        **** 			l88mem(2, delayBuffer/100);
 151              		.loc 1 72 4
 152 00c0 F245     		lw	a1,28(sp)
  69:main.c        **** 			
 153              		.loc 1 69 16
 154 00c2 AA84     		mv	s1,a0
 155              	.LVL17:
  72:main.c        **** 			l88mem(2, delayBuffer/100);
 156              		.loc 1 72 4 is_stmt 1
 157 00c4 0545     		li	a0,1
 158 00c6 97000000 		call	l88mem
 158      E7800000 
 159              	.LVL18:
  73:main.c        **** 			l88mem(3, moveBuffer/100);
 160              		.loc 1 73 4
 161 00ce E245     		lw	a1,24(sp)
 162 00d0 0945     		li	a0,2
 163 00d2 B3C54503 		div	a1,a1,s4
GAS LISTING /var/folders/_0/fbrtbm_x4pbf1b72ynjm3v580000gn/T//ccOx4mdW.s 			page 6


 164 00d6 97000000 		call	l88mem
 164      E7800000 
 165              	.LVL19:
  74:main.c        **** 			loadCell = (float)adc*0.005 + loadCell*0.995;
 166              		.loc 1 74 4
 167 00de D245     		lw	a1,20(sp)
 168 00e0 0D45     		li	a0,3
 169 00e2 B3C54503 		div	a1,a1,s4
 170 00e6 97000000 		call	l88mem
 170      E7800000 
 171              	.LVL20:
  75:main.c        **** 			lights = (int) loadCell/1000;
 172              		.loc 1 75 4
  75:main.c        **** 			lights = (int) loadCell/1000;
 173              		.loc 1 75 15 is_stmt 0
 174 00ee 2685     		mv	a0,s1
 175 00f0 97000000 		call	__floatsisf
 175      E7800000 
 176              	.LVL21:
 177 00f8 97000000 		call	__extendsfdf2
 177      E7800000 
 178              	.LVL22:
  75:main.c        **** 			lights = (int) loadCell/1000;
 179              		.loc 1 75 25
 180 0100 3040     		lw	a2,64(s0)
 181 0102 7440     		lw	a3,68(s0)
 182 0104 97000000 		call	__muldf3
 182      E7800000 
 183              	.LVL23:
 184 010c 2A8B     		mv	s6,a0
  75:main.c        **** 			lights = (int) loadCell/1000;
 185              		.loc 1 75 42
 186 010e 4E85     		mv	a0,s3
  75:main.c        **** 			lights = (int) loadCell/1000;
 187              		.loc 1 75 25
 188 0110 AE8B     		mv	s7,a1
  75:main.c        **** 			lights = (int) loadCell/1000;
 189              		.loc 1 75 42
 190 0112 97000000 		call	__extendsfdf2
 190      E7800000 
 191              	.LVL24:
 192 011a 3044     		lw	a2,72(s0)
 193 011c 7444     		lw	a3,76(s0)
 194 011e 97000000 		call	__muldf3
 194      E7800000 
 195              	.LVL25:
  75:main.c        **** 			lights = (int) loadCell/1000;
 196              		.loc 1 75 32
 197 0126 2A86     		mv	a2,a0
 198 0128 AE86     		mv	a3,a1
 199 012a 5A85     		mv	a0,s6
 200 012c DE85     		mv	a1,s7
 201 012e 97000000 		call	__adddf3
 201      E7800000 
 202              	.LVL26:
  75:main.c        **** 			lights = (int) loadCell/1000;
 203              		.loc 1 75 13
GAS LISTING /var/folders/_0/fbrtbm_x4pbf1b72ynjm3v580000gn/T//ccOx4mdW.s 			page 7


 204 0136 97000000 		call	__truncdfsf2
 204      E7800000 
 205              	.LVL27:
 206 013e AA89     		mv	s3,a0
 207              	.LVL28:
 208              		.loc 1 76 4 is_stmt 1
 209              		.loc 1 76 13 is_stmt 0
 210 0140 97000000 		call	__fixsfsi
 210      E7800000 
 211              	.LVL29:
 212              		.loc 1 76 11
 213 0148 B3445503 		div	s1,a0,s5
 214              	.LVL30:
  77:main.c        **** 			lights+= 36;
 215              		.loc 1 77 4 is_stmt 1
  78:main.c        **** 			
  79:main.c        **** 			if (lights>0)
  80:main.c        **** 			{
  81:main.c        **** 				l88mem(5, 0x00);
 216              		.loc 1 81 5 is_stmt 0
 217 014c 8145     		li	a1,0
  77:main.c        **** 			lights+= 36;
 218              		.loc 1 77 10
 219 014e 13894402 		addi	s2,s1,36
 220              	.LVL31:
  79:main.c        **** 			{
 221              		.loc 1 79 4 is_stmt 1
  79:main.c        **** 			{
 222              		.loc 1 79 7 is_stmt 0
 223 0152 635C2005 		ble	s2,zero,.L4
 224              		.loc 1 81 5 is_stmt 1
 225 0156 1545     		li	a0,5
 226 0158 97000000 		call	l88mem
 226      E7800000 
 227              	.LVL32:
  82:main.c        **** 				l88mem(4, lights);
 228              		.loc 1 82 5
 229 0160 CA85     		mv	a1,s2
 230 0162 1145     		li	a0,4
 231 0164 97000000 		call	l88mem
 231      E7800000 
 232              	.LVL33:
 233              	.L5:
  83:main.c        **** 			}
  84:main.c        **** 			else{
  85:main.c        **** 				l88mem(4, 0x00);
  86:main.c        **** 				l88mem(5, lights*-1);
  87:main.c        **** 			}
  88:main.c        **** 
  89:main.c        **** 			
  90:main.c        **** 			
  91:main.c        **** 			
  92:main.c        **** 
  93:main.c        ****             if (!(ms%SPEED)){
 234              		.loc 1 93 13
  94:main.c        **** 				motorStep(&stepBuffer, &delayBuffer, &moveBuffer);			
 235              		.loc 1 94 5
GAS LISTING /var/folders/_0/fbrtbm_x4pbf1b72ynjm3v580000gn/T//ccOx4mdW.s 			page 8


 236 016c 5008     		addi	a2,sp,20
 237 016e 2C08     		addi	a1,sp,24
 238 0170 6808     		addi	a0,sp,28
 239 0172 97000000 		call	motorStep
 239      E7800000 
 240              	.LVL34:
  95:main.c        ****             }
  96:main.c        **** 
  97:main.c        **** 			key=keyscan();
 241              		.loc 1 97 4
 242              		.loc 1 97 8 is_stmt 0
 243 017a 97000000 		call	keyscan
 243      E7800000 
 244              	.LVL35:
  98:main.c        **** 			if (key>=0)
 245              		.loc 1 98 4 is_stmt 1
 246              		.loc 1 98 7 is_stmt 0
 247 0182 634D0500 		blt	a0,zero,.L6
  99:main.c        **** 			{
 100:main.c        **** 				keyPad(lookUpTbl[key], &stepBuffer, &moveBuffer);
 248              		.loc 1 100 5 is_stmt 1
 249 0186 0A05     		slli	a0,a0,2
 250              	.LVL36:
 251 0188 9C10     		addi	a5,sp,96
 252 018a 3E95     		add	a0,a5,a0
 253 018c 032505FC 		lw	a0,-64(a0)
 254 0190 5008     		addi	a2,sp,20
 255 0192 6C08     		addi	a1,sp,28
 256 0194 97000000 		call	keyPad
 256      E7800000 
 257              	.LVL37:
 258              	.L6:
 101:main.c        **** 			}
 102:main.c        **** 
 103:main.c        **** 			blink(&ms, &light);
 259              		.loc 1 103 4
 260 019c 0C08     		addi	a1,sp,16
 261 019e 6800     		addi	a0,sp,12
 262 01a0 97000000 		call	blink
 262      E7800000 
 263              	.LVL38:
 264 01a8 DDB5     		j	.L2
 265              	.L4:
  85:main.c        **** 				l88mem(5, lights*-1);
 266              		.loc 1 85 5
 267 01aa 1145     		li	a0,4
 268 01ac 97000000 		call	l88mem
 268      E7800000 
 269              	.LVL39:
  86:main.c        **** 			}
 270              		.loc 1 86 5
 271 01b4 9305C0FD 		li	a1,-36
 272 01b8 858D     		sub	a1,a1,s1
 273 01ba 1545     		li	a0,5
 274 01bc 97000000 		call	l88mem
 274      E7800000 
 275              	.LVL40:
GAS LISTING /var/folders/_0/fbrtbm_x4pbf1b72ynjm3v580000gn/T//ccOx4mdW.s 			page 9


 276 01c4 65B7     		j	.L5
 277              		.cfi_endproc
 278              	.LFE7:
 280              		.section	.text.blink,"ax",@progbits
 281              		.align	1
 282              		.globl	blink
 284              	blink:
 285              	.LFB8:
 104:main.c        **** 
 105:main.c        **** 		}
 106:main.c        **** 	}
 107:main.c        **** }
 108:main.c        **** 
 109:main.c        **** void blink (int *pMs, int *pLight){
 286              		.loc 1 109 35
 287              		.cfi_startproc
 288              	.LVL41:
 110:main.c        **** 	if (*pMs == BLINKSPEED)
 289              		.loc 1 110 2
 290              		.loc 1 110 5 is_stmt 0
 291 0000 1841     		lw	a4,0(a0)
 292 0002 9307401F 		li	a5,500
 293 0006 6316F702 		bne	a4,a5,.L16
 109:main.c        **** 	if (*pMs == BLINKSPEED)
 294              		.loc 1 109 35
 295 000a 4111     		addi	sp,sp,-16
 296              	.LCFI1:
 297              		.cfi_def_cfa_offset 16
 298 000c 22C4     		sw	s0,8(sp)
 299 000e 06C6     		sw	ra,12(sp)
 300              		.cfi_offset 8, -8
 301              		.cfi_offset 1, -4
 302              	.LBB4:
 303              	.LBB5:
 111:main.c        **** 	{
 112:main.c        **** 		*pMs = 0;
 304              		.loc 1 112 8
 305 0010 23200500 		sw	zero,0(a0)
 306 0014 2E84     		mv	s0,a1
 307              	.LVL42:
 308              		.loc 1 112 3 is_stmt 1
 113:main.c        **** 		l88mem(0, *pLight);
 309              		.loc 1 113 3
 310 0016 8C41     		lw	a1,0(a1)
 311              	.LVL43:
 312 0018 0145     		li	a0,0
 313              	.LVL44:
 314 001a 97000000 		call	l88mem
 314      E7800000 
 315              	.LVL45:
 114:main.c        **** 		*pLight = !(*pLight);
 316              		.loc 1 114 3
 317              		.loc 1 114 13 is_stmt 0
 318 0022 1C40     		lw	a5,0(s0)
 319              	.LBE5:
 320              	.LBE4:
 115:main.c        **** 	}
GAS LISTING /var/folders/_0/fbrtbm_x4pbf1b72ynjm3v580000gn/T//ccOx4mdW.s 			page 10


 116:main.c        **** }
 321              		.loc 1 116 1
 322 0024 B240     		lw	ra,12(sp)
 323              		.cfi_restore 1
 324              	.LBB7:
 325              	.LBB6:
 114:main.c        **** 		*pLight = !(*pLight);
 326              		.loc 1 114 13
 327 0026 93B71700 		seqz	a5,a5
 114:main.c        **** 		*pLight = !(*pLight);
 328              		.loc 1 114 11
 329 002a 1CC0     		sw	a5,0(s0)
 330              	.LBE6:
 331              	.LBE7:
 332              		.loc 1 116 1
 333 002c 2244     		lw	s0,8(sp)
 334              		.cfi_restore 8
 335              	.LVL46:
 336 002e 4101     		addi	sp,sp,16
 337              	.LCFI2:
 338              		.cfi_def_cfa_offset 0
 339 0030 8280     		jr	ra
 340              	.LVL47:
 341              	.L16:
 342 0032 8280     		ret
 343              		.cfi_endproc
 344              	.LFE8:
 346              		.section	.text.keyPad,"ax",@progbits
 347              		.align	1
 348              		.globl	keyPad
 350              	keyPad:
 351              	.LFB9:
 117:main.c        **** void keyPad (int pressedKey, int *pStepBuffer, int *pMoveBuffer){
 352              		.loc 1 117 65 is_stmt 1
 353              		.cfi_startproc
 354              	.LVL48:
 118:main.c        **** 	switch (pressedKey)
 355              		.loc 1 118 2
 356 0000 B947     		li	a5,14
 357 0002 6303F502 		beq	a0,a5,.L20
 358 0006 63C9A700 		bgt	a0,a5,.L21
 359 000a A947     		li	a5,10
 360 000c 6355F500 		bge	a0,a5,.L19
 361              	.L22:
 119:main.c        **** 	{
 120:main.c        **** 	case 10:
 121:main.c        **** 	case 11:
 122:main.c        **** 	case 12:
 123:main.c        **** 	case 13: 
 124:main.c        **** 		break;
 125:main.c        **** 	case 14:
 126:main.c        **** 		*pMoveBuffer=0;
 127:main.c        **** 		*pStepBuffer=0;
 128:main.c        **** 		break;
 129:main.c        **** 	case 15:
 130:main.c        **** 		(*pMoveBuffer) += 32;
 131:main.c        **** 		break;
GAS LISTING /var/folders/_0/fbrtbm_x4pbf1b72ynjm3v580000gn/T//ccOx4mdW.s 			page 11


 132:main.c        **** 	default:
 133:main.c        **** 		(*pStepBuffer) += pressedKey;
 362              		.loc 1 133 3
 363              		.loc 1 133 18 is_stmt 0
 364 0010 9C41     		lw	a5,0(a1)
 365 0012 3E95     		add	a0,a5,a0
 366              	.LVL49:
 367 0014 88C1     		sw	a0,0(a1)
 134:main.c        **** 		break;
 368              		.loc 1 134 3 is_stmt 1
 369              	.L19:
 135:main.c        **** 	}
 136:main.c        **** 
 137:main.c        **** }
 370              		.loc 1 137 1 is_stmt 0
 371 0016 8280     		ret
 372              	.LVL50:
 373              	.L21:
 118:main.c        **** 	{
 374              		.loc 1 118 2
 375 0018 BD47     		li	a5,15
 376 001a E31BF5FE 		bne	a0,a5,.L22
 130:main.c        **** 		break;
 377              		.loc 1 130 3 is_stmt 1
 130:main.c        **** 		break;
 378              		.loc 1 130 18 is_stmt 0
 379 001e 1C42     		lw	a5,0(a2)
 380 0020 93870702 		addi	a5,a5,32
 381 0024 1CC2     		sw	a5,0(a2)
 131:main.c        **** 	default:
 382              		.loc 1 131 3 is_stmt 1
 383 0026 8280     		ret
 384              	.L20:
 126:main.c        **** 		*pStepBuffer=0;
 385              		.loc 1 126 3
 126:main.c        **** 		*pStepBuffer=0;
 386              		.loc 1 126 15 is_stmt 0
 387 0028 23200600 		sw	zero,0(a2)
 127:main.c        **** 		break;
 388              		.loc 1 127 3 is_stmt 1
 127:main.c        **** 		break;
 389              		.loc 1 127 15 is_stmt 0
 390 002c 23A00500 		sw	zero,0(a1)
 128:main.c        **** 	case 15:
 391              		.loc 1 128 3 is_stmt 1
 392 0030 8280     		ret
 393              		.cfi_endproc
 394              	.LFE9:
 396              		.section	.text.motorStep,"ax",@progbits
 397              		.align	1
 398              		.globl	motorStep
 400              	motorStep:
 401              	.LFB10:
 138:main.c        **** void motorStep (int *pStepBuffer, int *pDelayBuffer, int *pMoveBuffer){
 402              		.loc 1 138 71
 403              		.cfi_startproc
 404              	.LVL51:
GAS LISTING /var/folders/_0/fbrtbm_x4pbf1b72ynjm3v580000gn/T//ccOx4mdW.s 			page 12


 139:main.c        **** 	if ((*pDelayBuffer)>0)
 405              		.loc 1 139 2
 406              		.loc 1 139 5 is_stmt 0
 407 0000 9C41     		lw	a5,0(a1)
 138:main.c        **** void motorStep (int *pStepBuffer, int *pDelayBuffer, int *pMoveBuffer){
 408              		.loc 1 138 71
 409 0002 4111     		addi	sp,sp,-16
 410              	.LCFI3:
 411              		.cfi_def_cfa_offset 16
 412 0004 26C2     		sw	s1,4(sp)
 413 0006 06C6     		sw	ra,12(sp)
 414 0008 22C4     		sw	s0,8(sp)
 415              		.cfi_offset 9, -12
 416              		.cfi_offset 1, -4
 417              		.cfi_offset 8, -8
 138:main.c        **** void motorStep (int *pStepBuffer, int *pDelayBuffer, int *pMoveBuffer){
 418              		.loc 1 138 71
 419 000a AE84     		mv	s1,a1
 420              		.loc 1 139 5
 421 000c 635EF000 		ble	a5,zero,.L26
 140:main.c        **** 	{
 141:main.c        **** 		printStop();
 422              		.loc 1 141 3 is_stmt 1
 423 0010 97000000 		call	printStop
 423      E7800000 
 424              	.LVL52:
 142:main.c        **** 		(*pDelayBuffer)--;
 425              		.loc 1 142 3
 426              		.loc 1 142 18 is_stmt 0
 427 0018 9C40     		lw	a5,0(s1)
 428 001a FD17     		addi	a5,a5,-1
 429 001c 9CC0     		sw	a5,0(s1)
 430              	.L25:
 143:main.c        **** 	}
 144:main.c        **** 	else if ((*pMoveBuffer)>0){
 145:main.c        **** 		printGo();
 146:main.c        **** 		(*pMoveBuffer)--;
 147:main.c        **** 		execStep(CW);
 148:main.c        **** 		if (!(*pMoveBuffer))
 149:main.c        **** 		{
 150:main.c        **** 			*pDelayBuffer = DELAY;
 151:main.c        **** 		}
 152:main.c        **** 	}
 153:main.c        **** 	else if (*pStepBuffer){
 154:main.c        **** 		(*pStepBuffer)--;
 155:main.c        **** 		*pMoveBuffer = QUARTERREV;
 156:main.c        **** 	}
 157:main.c        **** }
 431              		.loc 1 157 1
 432 001e B240     		lw	ra,12(sp)
 433              		.cfi_remember_state
 434              		.cfi_restore 1
 435 0020 2244     		lw	s0,8(sp)
 436              		.cfi_restore 8
 437 0022 9244     		lw	s1,4(sp)
 438              		.cfi_restore 9
 439              	.LVL53:
GAS LISTING /var/folders/_0/fbrtbm_x4pbf1b72ynjm3v580000gn/T//ccOx4mdW.s 			page 13


 440 0024 4101     		addi	sp,sp,16
 441              	.LCFI4:
 442              		.cfi_def_cfa_offset 0
 443 0026 8280     		jr	ra
 444              	.LVL54:
 445              	.L26:
 446              	.LCFI5:
 447              		.cfi_restore_state
 144:main.c        **** 		printGo();
 448              		.loc 1 144 10
 449 0028 1C42     		lw	a5,0(a2)
 450 002a 3284     		mv	s0,a2
 144:main.c        **** 		printGo();
 451              		.loc 1 144 7 is_stmt 1
 144:main.c        **** 		printGo();
 452              		.loc 1 144 10 is_stmt 0
 453 002c 6354F002 		ble	a5,zero,.L28
 454              	.LVL55:
 455              	.LBB10:
 456              	.LBB11:
 145:main.c        **** 		(*pMoveBuffer)--;
 457              		.loc 1 145 3 is_stmt 1
 458 0030 97000000 		call	printGo
 458      E7800000 
 459              	.LVL56:
 146:main.c        **** 		execStep(CW);
 460              		.loc 1 146 3
 146:main.c        **** 		execStep(CW);
 461              		.loc 1 146 17 is_stmt 0
 462 0038 1C40     		lw	a5,0(s0)
 147:main.c        **** 		if (!(*pMoveBuffer))
 463              		.loc 1 147 3
 464 003a 0545     		li	a0,1
 146:main.c        **** 		execStep(CW);
 465              		.loc 1 146 17
 466 003c FD17     		addi	a5,a5,-1
 467 003e 1CC0     		sw	a5,0(s0)
 147:main.c        **** 		if (!(*pMoveBuffer))
 468              		.loc 1 147 3 is_stmt 1
 469 0040 97000000 		call	execStep
 469      E7800000 
 470              	.LVL57:
 148:main.c        **** 		{
 471              		.loc 1 148 3
 148:main.c        **** 		{
 472              		.loc 1 148 6 is_stmt 0
 473 0048 1C40     		lw	a5,0(s0)
 474 004a F1FB     		bne	a5,zero,.L25
 150:main.c        **** 		}
 475              		.loc 1 150 4 is_stmt 1
 150:main.c        **** 		}
 476              		.loc 1 150 18 is_stmt 0
 477 004c 9307401F 		li	a5,500
 478 0050 9CC0     		sw	a5,0(s1)
 479 0052 F1B7     		j	.L25
 480              	.LVL58:
 481              	.L28:
GAS LISTING /var/folders/_0/fbrtbm_x4pbf1b72ynjm3v580000gn/T//ccOx4mdW.s 			page 14


 482              	.LBE11:
 483              	.LBE10:
 153:main.c        **** 		(*pStepBuffer)--;
 484              		.loc 1 153 7 is_stmt 1
 153:main.c        **** 		(*pStepBuffer)--;
 485              		.loc 1 153 11 is_stmt 0
 486 0054 1C41     		lw	a5,0(a0)
 153:main.c        **** 		(*pStepBuffer)--;
 487              		.loc 1 153 10
 488 0056 E1D7     		beq	a5,zero,.L25
 154:main.c        **** 		*pMoveBuffer = QUARTERREV;
 489              		.loc 1 154 3 is_stmt 1
 154:main.c        **** 		*pMoveBuffer = QUARTERREV;
 490              		.loc 1 154 17 is_stmt 0
 491 0058 FD17     		addi	a5,a5,-1
 492 005a 1CC1     		sw	a5,0(a0)
 155:main.c        **** 	}
 493              		.loc 1 155 3 is_stmt 1
 155:main.c        **** 	}
 494              		.loc 1 155 16 is_stmt 0
 495 005c 93070040 		li	a5,1024
 496 0060 1CC2     		sw	a5,0(a2)
 497              		.loc 1 157 1
 498 0062 75BF     		j	.L25
 499              		.cfi_endproc
 500              	.LFE10:
 502              		.section	.text.printStop,"ax",@progbits
 503              		.align	1
 504              		.globl	printStop
 506              	printStop:
 507              	.LFB11:
 158:main.c        **** void printStop (void){
 508              		.loc 1 158 22 is_stmt 1
 509              		.cfi_startproc
 159:main.c        **** 	l88mem(6, 0xFF);
 510              		.loc 1 159 2
 158:main.c        **** void printStop (void){
 511              		.loc 1 158 22 is_stmt 0
 512 0000 4111     		addi	sp,sp,-16
 513              	.LCFI6:
 514              		.cfi_def_cfa_offset 16
 515              		.loc 1 159 2
 516 0002 9305F00F 		li	a1,255
 517 0006 1945     		li	a0,6
 158:main.c        **** void printStop (void){
 518              		.loc 1 158 22
 519 0008 06C6     		sw	ra,12(sp)
 520              		.cfi_offset 1, -4
 521              		.loc 1 159 2
 522 000a 97000000 		call	l88mem
 522      E7800000 
 523              	.LVL59:
 160:main.c        **** 	l88mem(7, 0xFF);
 524              		.loc 1 160 2 is_stmt 1
 161:main.c        **** }
 525              		.loc 1 161 1 is_stmt 0
 526 0012 B240     		lw	ra,12(sp)
GAS LISTING /var/folders/_0/fbrtbm_x4pbf1b72ynjm3v580000gn/T//ccOx4mdW.s 			page 15


 527              		.cfi_restore 1
 160:main.c        **** 	l88mem(7, 0xFF);
 528              		.loc 1 160 2
 529 0014 9305F00F 		li	a1,255
 530              		.loc 1 161 1
 160:main.c        **** 	l88mem(7, 0xFF);
 531              		.loc 1 160 2
 532 0018 1D45     		li	a0,7
 533              		.loc 1 161 1
 534 001a 4101     		addi	sp,sp,16
 535              	.LCFI7:
 536              		.cfi_def_cfa_offset 0
 160:main.c        **** 	l88mem(7, 0xFF);
 537              		.loc 1 160 2
 538 001c 17030000 		tail	l88mem
 538      67000300 
 539              	.LVL60:
 540              		.cfi_endproc
 541              	.LFE11:
 543              		.section	.text.printGo,"ax",@progbits
 544              		.align	1
 545              		.globl	printGo
 547              	printGo:
 548              	.LFB12:
 162:main.c        **** void printGo (void){
 549              		.loc 1 162 20 is_stmt 1
 550              		.cfi_startproc
 163:main.c        **** 	l88mem(6, 0x00);
 551              		.loc 1 163 2
 162:main.c        **** void printGo (void){
 552              		.loc 1 162 20 is_stmt 0
 553 0000 4111     		addi	sp,sp,-16
 554              	.LCFI8:
 555              		.cfi_def_cfa_offset 16
 556              		.loc 1 163 2
 557 0002 8145     		li	a1,0
 558 0004 1945     		li	a0,6
 162:main.c        **** void printGo (void){
 559              		.loc 1 162 20
 560 0006 06C6     		sw	ra,12(sp)
 561              		.cfi_offset 1, -4
 562              		.loc 1 163 2
 563 0008 97000000 		call	l88mem
 563      E7800000 
 564              	.LVL61:
 164:main.c        **** 	l88mem(7, 0x00);
 565              		.loc 1 164 2 is_stmt 1
 165:main.c        **** }...
 566              		.loc 1 165 1 is_stmt 0
 567 0010 B240     		lw	ra,12(sp)
 568              		.cfi_restore 1
 164:main.c        **** 	l88mem(7, 0x00);
 569              		.loc 1 164 2
 570 0012 8145     		li	a1,0
 571              		.loc 1 165 1
 164:main.c        **** 	l88mem(7, 0x00);
 572              		.loc 1 164 2
GAS LISTING /var/folders/_0/fbrtbm_x4pbf1b72ynjm3v580000gn/T//ccOx4mdW.s 			page 16


 573 0014 1D45     		li	a0,7
 574              		.loc 1 165 1
 575 0016 4101     		addi	sp,sp,16
 576              	.LCFI9:
 577              		.cfi_def_cfa_offset 0
 164:main.c        **** 	l88mem(7, 0x00);
 578              		.loc 1 164 2
 579 0018 17030000 		tail	l88mem
 579      67000300 
 580              	.LVL62:
 581              		.cfi_endproc
 582              	.LFE12:
 584              		.section	.rodata
 585              		.align	3
 586              		.set	.LANCHOR0,. + 0
 587              	.LC0:
 588 0000 01000000 		.word	1
 589 0004 04000000 		.word	4
 590 0008 07000000 		.word	7
 591 000c 0E000000 		.word	14
 592 0010 02000000 		.word	2
 593 0014 05000000 		.word	5
 594 0018 08000000 		.word	8
 595 001c 00000000 		.word	0
 596 0020 03000000 		.word	3
 597 0024 06000000 		.word	6
 598 0028 09000000 		.word	9
 599 002c 0F000000 		.word	15
 600 0030 0A000000 		.word	10
 601 0034 0B000000 		.word	11
 602 0038 0C000000 		.word	12
 603 003c 0D000000 		.word	13
 604              	.LC1:
 605 0040 7B14AE47 		.word	1202590843
 606 0044 E17A743F 		.word	1064598241
 607              	.LC2:
 608 0048 D7A3703D 		.word	1030792151
 609 004c 0AD7EF3F 		.word	1072682762
 610              		.text
 611              	.Letext0:
 612              		.file 2 "/Users/gustavsf/Desktop/toolchain-gd32v-v202-osx/compiler/riscv64-unknown-elf/include/mac
 613              		.file 3 "/Users/gustavsf/Desktop/toolchain-gd32v-v202-osx/compiler/riscv64-unknown-elf/include/sys
 614              		.file 4 "lib/usbcdc/include/drv_usb_regs.h"
 615              		.file 5 "../../firmware/GD32VF103_standard_peripheral/system_gd32vf103.h"
 616              		.file 6 "lib/usbcdc/include/usb_ch9_std.h"
 617              		.file 7 "lib/usbcdc/include/drv_usb_core.h"
 618              		.file 8 "lib/usbcdc/include/drv_usb_dev.h"
 619              		.file 9 "/Users/gustavsf/Desktop/toolchain-gd32v-v202-osx/compiler/lib/gcc/riscv64-unknown-elf/8.3
 620              		.file 10 "/Users/gustavsf/Desktop/toolchain-gd32v-v202-osx/compiler/riscv64-unknown-elf/include/sy
 621              		.file 11 "/Users/gustavsf/Desktop/toolchain-gd32v-v202-osx/compiler/riscv64-unknown-elf/include/sy
 622              		.file 12 "/Users/gustavsf/Desktop/toolchain-gd32v-v202-osx/compiler/riscv64-unknown-elf/include/sy
 623              		.file 13 "lib/usbcdc/include/cdc_acm_core.h"
 624              		.file 14 "/Users/gustavsf/Desktop/toolchain-gd32v-v202-osx/compiler/riscv64-unknown-elf/include/st
 625              		.file 15 "lib/usbcdc/include/usb_serial_if.h"
 626              		.file 16 "drivers.h"
 627              		.file 17 "stepperUP.h"
 628              		.file 18 "lib/cs1237/include/cs1237_port.h"
GAS LISTING /var/folders/_0/fbrtbm_x4pbf1b72ynjm3v580000gn/T//ccOx4mdW.s 			page 17


 629              		.file 19 "lib/cs1237/include/cs1237.h"
 630              		.file 20 "<built-in>"
GAS LISTING /var/folders/_0/fbrtbm_x4pbf1b72ynjm3v580000gn/T//ccOx4mdW.s 			page 18


DEFINED SYMBOLS
                            *ABS*:0000000000000000 main.c
/var/folders/_0/fbrtbm_x4pbf1b72ynjm3v580000gn/T//ccOx4mdW.s:19     .text.startup.main:0000000000000000 main
/var/folders/_0/fbrtbm_x4pbf1b72ynjm3v580000gn/T//ccOx4mdW.s:23     .text.startup.main:0000000000000000 .L0 
/var/folders/_0/fbrtbm_x4pbf1b72ynjm3v580000gn/T//ccOx4mdW.s:24     .text.startup.main:0000000000000000 .L0 
/var/folders/_0/fbrtbm_x4pbf1b72ynjm3v580000gn/T//ccOx4mdW.s:26     .text.startup.main:0000000000000000 .L0 
/var/folders/_0/fbrtbm_x4pbf1b72ynjm3v580000gn/T//ccOx4mdW.s:27     .text.startup.main:0000000000000000 .L0 
/var/folders/_0/fbrtbm_x4pbf1b72ynjm3v580000gn/T//ccOx4mdW.s:28     .text.startup.main:0000000000000000 .L0 
/var/folders/_0/fbrtbm_x4pbf1b72ynjm3v580000gn/T//ccOx4mdW.s:30     .text.startup.main:0000000000000002 .L0 
/var/folders/_0/fbrtbm_x4pbf1b72ynjm3v580000gn/T//ccOx4mdW.s:32     .text.startup.main:0000000000000004 .L0 
/var/folders/_0/fbrtbm_x4pbf1b72ynjm3v580000gn/T//ccOx4mdW.s:34     .text.startup.main:0000000000000004 .L0 
/var/folders/_0/fbrtbm_x4pbf1b72ynjm3v580000gn/T//ccOx4mdW.s:36     .text.startup.main:0000000000000008 .L0 
/var/folders/_0/fbrtbm_x4pbf1b72ynjm3v580000gn/T//ccOx4mdW.s:38     .text.startup.main:000000000000000a .L0 
/var/folders/_0/fbrtbm_x4pbf1b72ynjm3v580000gn/T//ccOx4mdW.s:42     .text.startup.main:0000000000000014 .L0 
/var/folders/_0/fbrtbm_x4pbf1b72ynjm3v580000gn/T//ccOx4mdW.s:44     .text.startup.main:0000000000000016 .L0 
/var/folders/_0/fbrtbm_x4pbf1b72ynjm3v580000gn/T//ccOx4mdW.s:46     .text.startup.main:0000000000000018 .L0 
/var/folders/_0/fbrtbm_x4pbf1b72ynjm3v580000gn/T//ccOx4mdW.s:53     .text.startup.main:0000000000000026 .L0 
/var/folders/_0/fbrtbm_x4pbf1b72ynjm3v580000gn/T//ccOx4mdW.s:54     .text.startup.main:0000000000000026 .L0 
/var/folders/_0/fbrtbm_x4pbf1b72ynjm3v580000gn/T//ccOx4mdW.s:55     .text.startup.main:0000000000000026 .L0 
/var/folders/_0/fbrtbm_x4pbf1b72ynjm3v580000gn/T//ccOx4mdW.s:56     .text.startup.main:0000000000000026 .L0 
/var/folders/_0/fbrtbm_x4pbf1b72ynjm3v580000gn/T//ccOx4mdW.s:57     .text.startup.main:0000000000000026 .L0 
/var/folders/_0/fbrtbm_x4pbf1b72ynjm3v580000gn/T//ccOx4mdW.s:58     .text.startup.main:0000000000000026 .L0 
/var/folders/_0/fbrtbm_x4pbf1b72ynjm3v580000gn/T//ccOx4mdW.s:59     .text.startup.main:0000000000000026 .L0 
/var/folders/_0/fbrtbm_x4pbf1b72ynjm3v580000gn/T//ccOx4mdW.s:60     .text.startup.main:0000000000000026 .L0 
/var/folders/_0/fbrtbm_x4pbf1b72ynjm3v580000gn/T//ccOx4mdW.s:62     .text.startup.main:0000000000000026 .L0 
/var/folders/_0/fbrtbm_x4pbf1b72ynjm3v580000gn/T//ccOx4mdW.s:64     .text.startup.main:0000000000000028 .L0 
/var/folders/_0/fbrtbm_x4pbf1b72ynjm3v580000gn/T//ccOx4mdW.s:65     .text.startup.main:0000000000000028 .L0 
/var/folders/_0/fbrtbm_x4pbf1b72ynjm3v580000gn/T//ccOx4mdW.s:66     .text.startup.main:0000000000000028 .L0 
/var/folders/_0/fbrtbm_x4pbf1b72ynjm3v580000gn/T//ccOx4mdW.s:68     .text.startup.main:000000000000002a .L0 
/var/folders/_0/fbrtbm_x4pbf1b72ynjm3v580000gn/T//ccOx4mdW.s:69     .text.startup.main:000000000000002a .L0 
/var/folders/_0/fbrtbm_x4pbf1b72ynjm3v580000gn/T//ccOx4mdW.s:71     .text.startup.main:000000000000002c .L0 
/var/folders/_0/fbrtbm_x4pbf1b72ynjm3v580000gn/T//ccOx4mdW.s:72     .text.startup.main:000000000000002c .L0 
/var/folders/_0/fbrtbm_x4pbf1b72ynjm3v580000gn/T//ccOx4mdW.s:75     .text.startup.main:000000000000002e .L0 
/var/folders/_0/fbrtbm_x4pbf1b72ynjm3v580000gn/T//ccOx4mdW.s:76     .text.startup.main:000000000000002e .L0 
/var/folders/_0/fbrtbm_x4pbf1b72ynjm3v580000gn/T//ccOx4mdW.s:77     .text.startup.main:000000000000002e .L0 
/var/folders/_0/fbrtbm_x4pbf1b72ynjm3v580000gn/T//ccOx4mdW.s:80     .text.startup.main:0000000000000036 .L0 
/var/folders/_0/fbrtbm_x4pbf1b72ynjm3v580000gn/T//ccOx4mdW.s:81     .text.startup.main:0000000000000036 .L0 
/var/folders/_0/fbrtbm_x4pbf1b72ynjm3v580000gn/T//ccOx4mdW.s:82     .text.startup.main:0000000000000036 .L0 
/var/folders/_0/fbrtbm_x4pbf1b72ynjm3v580000gn/T//ccOx4mdW.s:83     .text.startup.main:0000000000000036 .L0 
/var/folders/_0/fbrtbm_x4pbf1b72ynjm3v580000gn/T//ccOx4mdW.s:84     .text.startup.main:0000000000000036 .L0 
/var/folders/_0/fbrtbm_x4pbf1b72ynjm3v580000gn/T//ccOx4mdW.s:85     .text.startup.main:0000000000000036 .L0 
/var/folders/_0/fbrtbm_x4pbf1b72ynjm3v580000gn/T//ccOx4mdW.s:88     .text.startup.main:000000000000003e .L0 
/var/folders/_0/fbrtbm_x4pbf1b72ynjm3v580000gn/T//ccOx4mdW.s:91     .text.startup.main:0000000000000046 .L0 
/var/folders/_0/fbrtbm_x4pbf1b72ynjm3v580000gn/T//ccOx4mdW.s:94     .text.startup.main:000000000000004e .L0 
/var/folders/_0/fbrtbm_x4pbf1b72ynjm3v580000gn/T//ccOx4mdW.s:97     .text.startup.main:0000000000000056 .L0 
/var/folders/_0/fbrtbm_x4pbf1b72ynjm3v580000gn/T//ccOx4mdW.s:100    .text.startup.main:000000000000005e .L0 
/var/folders/_0/fbrtbm_x4pbf1b72ynjm3v580000gn/T//ccOx4mdW.s:101    .text.startup.main:000000000000005e .L0 
/var/folders/_0/fbrtbm_x4pbf1b72ynjm3v580000gn/T//ccOx4mdW.s:104    .text.startup.main:0000000000000066 .L0 
/var/folders/_0/fbrtbm_x4pbf1b72ynjm3v580000gn/T//ccOx4mdW.s:109    .text.startup.main:0000000000000072 .L0 
/var/folders/_0/fbrtbm_x4pbf1b72ynjm3v580000gn/T//ccOx4mdW.s:113    .text.startup.main:000000000000007e .L0 
/var/folders/_0/fbrtbm_x4pbf1b72ynjm3v580000gn/T//ccOx4mdW.s:115    .text.startup.main:0000000000000082 .L0 
/var/folders/_0/fbrtbm_x4pbf1b72ynjm3v580000gn/T//ccOx4mdW.s:117    .text.startup.main:0000000000000086 .L0 
/var/folders/_0/fbrtbm_x4pbf1b72ynjm3v580000gn/T//ccOx4mdW.s:119    .text.startup.main:000000000000008a .L0 
/var/folders/_0/fbrtbm_x4pbf1b72ynjm3v580000gn/T//ccOx4mdW.s:123    .text.startup.main:000000000000008e .L0 
/var/folders/_0/fbrtbm_x4pbf1b72ynjm3v580000gn/T//ccOx4mdW.s:124    .text.startup.main:000000000000008e .L0 
/var/folders/_0/fbrtbm_x4pbf1b72ynjm3v580000gn/T//ccOx4mdW.s:125    .text.startup.main:000000000000008e .L0 
/var/folders/_0/fbrtbm_x4pbf1b72ynjm3v580000gn/T//ccOx4mdW.s:128    .text.startup.main:0000000000000096 .L0 
GAS LISTING /var/folders/_0/fbrtbm_x4pbf1b72ynjm3v580000gn/T//ccOx4mdW.s 			page 19


/var/folders/_0/fbrtbm_x4pbf1b72ynjm3v580000gn/T//ccOx4mdW.s:130    .text.startup.main:0000000000000098 .L0 
/var/folders/_0/fbrtbm_x4pbf1b72ynjm3v580000gn/T//ccOx4mdW.s:135    .text.startup.main:00000000000000a8 .L0 
/var/folders/_0/fbrtbm_x4pbf1b72ynjm3v580000gn/T//ccOx4mdW.s:136    .text.startup.main:00000000000000a8 .L0 
/var/folders/_0/fbrtbm_x4pbf1b72ynjm3v580000gn/T//ccOx4mdW.s:141    .text.startup.main:00000000000000ae .L0 
/var/folders/_0/fbrtbm_x4pbf1b72ynjm3v580000gn/T//ccOx4mdW.s:142    .text.startup.main:00000000000000ae .L0 
/var/folders/_0/fbrtbm_x4pbf1b72ynjm3v580000gn/T//ccOx4mdW.s:143    .text.startup.main:00000000000000ae .L0 
/var/folders/_0/fbrtbm_x4pbf1b72ynjm3v580000gn/T//ccOx4mdW.s:146    .text.startup.main:00000000000000b6 .L0 
/var/folders/_0/fbrtbm_x4pbf1b72ynjm3v580000gn/T//ccOx4mdW.s:148    .text.startup.main:00000000000000b8 .L0 
/var/folders/_0/fbrtbm_x4pbf1b72ynjm3v580000gn/T//ccOx4mdW.s:149    .text.startup.main:00000000000000b8 .L0 
/var/folders/_0/fbrtbm_x4pbf1b72ynjm3v580000gn/T//ccOx4mdW.s:152    .text.startup.main:00000000000000c0 .L0 
/var/folders/_0/fbrtbm_x4pbf1b72ynjm3v580000gn/T//ccOx4mdW.s:154    .text.startup.main:00000000000000c2 .L0 
/var/folders/_0/fbrtbm_x4pbf1b72ynjm3v580000gn/T//ccOx4mdW.s:157    .text.startup.main:00000000000000c4 .L0 
/var/folders/_0/fbrtbm_x4pbf1b72ynjm3v580000gn/T//ccOx4mdW.s:161    .text.startup.main:00000000000000ce .L0 
/var/folders/_0/fbrtbm_x4pbf1b72ynjm3v580000gn/T//ccOx4mdW.s:167    .text.startup.main:00000000000000de .L0 
/var/folders/_0/fbrtbm_x4pbf1b72ynjm3v580000gn/T//ccOx4mdW.s:173    .text.startup.main:00000000000000ee .L0 
/var/folders/_0/fbrtbm_x4pbf1b72ynjm3v580000gn/T//ccOx4mdW.s:174    .text.startup.main:00000000000000ee .L0 
/var/folders/_0/fbrtbm_x4pbf1b72ynjm3v580000gn/T//ccOx4mdW.s:180    .text.startup.main:0000000000000100 .L0 
/var/folders/_0/fbrtbm_x4pbf1b72ynjm3v580000gn/T//ccOx4mdW.s:186    .text.startup.main:000000000000010e .L0 
/var/folders/_0/fbrtbm_x4pbf1b72ynjm3v580000gn/T//ccOx4mdW.s:188    .text.startup.main:0000000000000110 .L0 
/var/folders/_0/fbrtbm_x4pbf1b72ynjm3v580000gn/T//ccOx4mdW.s:190    .text.startup.main:0000000000000112 .L0 
/var/folders/_0/fbrtbm_x4pbf1b72ynjm3v580000gn/T//ccOx4mdW.s:197    .text.startup.main:0000000000000126 .L0 
/var/folders/_0/fbrtbm_x4pbf1b72ynjm3v580000gn/T//ccOx4mdW.s:204    .text.startup.main:0000000000000136 .L0 
/var/folders/_0/fbrtbm_x4pbf1b72ynjm3v580000gn/T//ccOx4mdW.s:209    .text.startup.main:0000000000000140 .L0 
/var/folders/_0/fbrtbm_x4pbf1b72ynjm3v580000gn/T//ccOx4mdW.s:210    .text.startup.main:0000000000000140 .L0 
/var/folders/_0/fbrtbm_x4pbf1b72ynjm3v580000gn/T//ccOx4mdW.s:213    .text.startup.main:0000000000000148 .L0 
/var/folders/_0/fbrtbm_x4pbf1b72ynjm3v580000gn/T//ccOx4mdW.s:216    .text.startup.main:000000000000014c .L0 
/var/folders/_0/fbrtbm_x4pbf1b72ynjm3v580000gn/T//ccOx4mdW.s:217    .text.startup.main:000000000000014c .L0 
/var/folders/_0/fbrtbm_x4pbf1b72ynjm3v580000gn/T//ccOx4mdW.s:219    .text.startup.main:000000000000014e .L0 
/var/folders/_0/fbrtbm_x4pbf1b72ynjm3v580000gn/T//ccOx4mdW.s:222    .text.startup.main:0000000000000152 .L0 
/var/folders/_0/fbrtbm_x4pbf1b72ynjm3v580000gn/T//ccOx4mdW.s:223    .text.startup.main:0000000000000152 .L0 
/var/folders/_0/fbrtbm_x4pbf1b72ynjm3v580000gn/T//ccOx4mdW.s:225    .text.startup.main:0000000000000156 .L0 
/var/folders/_0/fbrtbm_x4pbf1b72ynjm3v580000gn/T//ccOx4mdW.s:229    .text.startup.main:0000000000000160 .L0 
/var/folders/_0/fbrtbm_x4pbf1b72ynjm3v580000gn/T//ccOx4mdW.s:235    .text.startup.main:000000000000016c .L0 
/var/folders/_0/fbrtbm_x4pbf1b72ynjm3v580000gn/T//ccOx4mdW.s:236    .text.startup.main:000000000000016c .L0 
/var/folders/_0/fbrtbm_x4pbf1b72ynjm3v580000gn/T//ccOx4mdW.s:400    .text.motorStep:0000000000000000 motorStep
/var/folders/_0/fbrtbm_x4pbf1b72ynjm3v580000gn/T//ccOx4mdW.s:242    .text.startup.main:000000000000017a .L0 
/var/folders/_0/fbrtbm_x4pbf1b72ynjm3v580000gn/T//ccOx4mdW.s:243    .text.startup.main:000000000000017a .L0 
/var/folders/_0/fbrtbm_x4pbf1b72ynjm3v580000gn/T//ccOx4mdW.s:246    .text.startup.main:0000000000000182 .L0 
/var/folders/_0/fbrtbm_x4pbf1b72ynjm3v580000gn/T//ccOx4mdW.s:247    .text.startup.main:0000000000000182 .L0 
/var/folders/_0/fbrtbm_x4pbf1b72ynjm3v580000gn/T//ccOx4mdW.s:249    .text.startup.main:0000000000000186 .L0 
/var/folders/_0/fbrtbm_x4pbf1b72ynjm3v580000gn/T//ccOx4mdW.s:350    .text.keyPad:0000000000000000 keyPad
/var/folders/_0/fbrtbm_x4pbf1b72ynjm3v580000gn/T//ccOx4mdW.s:260    .text.startup.main:000000000000019c .L0 
/var/folders/_0/fbrtbm_x4pbf1b72ynjm3v580000gn/T//ccOx4mdW.s:284    .text.blink:0000000000000000 blink
/var/folders/_0/fbrtbm_x4pbf1b72ynjm3v580000gn/T//ccOx4mdW.s:267    .text.startup.main:00000000000001aa .L0 
/var/folders/_0/fbrtbm_x4pbf1b72ynjm3v580000gn/T//ccOx4mdW.s:271    .text.startup.main:00000000000001b4 .L0 
/var/folders/_0/fbrtbm_x4pbf1b72ynjm3v580000gn/T//ccOx4mdW.s:277    .text.startup.main:00000000000001c6 .L0 
/var/folders/_0/fbrtbm_x4pbf1b72ynjm3v580000gn/T//ccOx4mdW.s:287    .text.blink:0000000000000000 .L0 
/var/folders/_0/fbrtbm_x4pbf1b72ynjm3v580000gn/T//ccOx4mdW.s:289    .text.blink:0000000000000000 .L0 
/var/folders/_0/fbrtbm_x4pbf1b72ynjm3v580000gn/T//ccOx4mdW.s:290    .text.blink:0000000000000000 .L0 
/var/folders/_0/fbrtbm_x4pbf1b72ynjm3v580000gn/T//ccOx4mdW.s:291    .text.blink:0000000000000000 .L0 
/var/folders/_0/fbrtbm_x4pbf1b72ynjm3v580000gn/T//ccOx4mdW.s:295    .text.blink:000000000000000a .L0 
/var/folders/_0/fbrtbm_x4pbf1b72ynjm3v580000gn/T//ccOx4mdW.s:297    .text.blink:000000000000000c .L0 
/var/folders/_0/fbrtbm_x4pbf1b72ynjm3v580000gn/T//ccOx4mdW.s:300    .text.blink:0000000000000010 .L0 
/var/folders/_0/fbrtbm_x4pbf1b72ynjm3v580000gn/T//ccOx4mdW.s:301    .text.blink:0000000000000010 .L0 
/var/folders/_0/fbrtbm_x4pbf1b72ynjm3v580000gn/T//ccOx4mdW.s:305    .text.blink:0000000000000010 .L0 
/var/folders/_0/fbrtbm_x4pbf1b72ynjm3v580000gn/T//ccOx4mdW.s:309    .text.blink:0000000000000016 .L0 
/var/folders/_0/fbrtbm_x4pbf1b72ynjm3v580000gn/T//ccOx4mdW.s:310    .text.blink:0000000000000016 .L0 
GAS LISTING /var/folders/_0/fbrtbm_x4pbf1b72ynjm3v580000gn/T//ccOx4mdW.s 			page 20


/var/folders/_0/fbrtbm_x4pbf1b72ynjm3v580000gn/T//ccOx4mdW.s:317    .text.blink:0000000000000022 .L0 
/var/folders/_0/fbrtbm_x4pbf1b72ynjm3v580000gn/T//ccOx4mdW.s:318    .text.blink:0000000000000022 .L0 
/var/folders/_0/fbrtbm_x4pbf1b72ynjm3v580000gn/T//ccOx4mdW.s:322    .text.blink:0000000000000024 .L0 
/var/folders/_0/fbrtbm_x4pbf1b72ynjm3v580000gn/T//ccOx4mdW.s:323    .text.blink:0000000000000026 .L0 
/var/folders/_0/fbrtbm_x4pbf1b72ynjm3v580000gn/T//ccOx4mdW.s:327    .text.blink:0000000000000026 .L0 
/var/folders/_0/fbrtbm_x4pbf1b72ynjm3v580000gn/T//ccOx4mdW.s:329    .text.blink:000000000000002a .L0 
/var/folders/_0/fbrtbm_x4pbf1b72ynjm3v580000gn/T//ccOx4mdW.s:333    .text.blink:000000000000002c .L0 
/var/folders/_0/fbrtbm_x4pbf1b72ynjm3v580000gn/T//ccOx4mdW.s:334    .text.blink:000000000000002e .L0 
/var/folders/_0/fbrtbm_x4pbf1b72ynjm3v580000gn/T//ccOx4mdW.s:338    .text.blink:0000000000000030 .L0 
/var/folders/_0/fbrtbm_x4pbf1b72ynjm3v580000gn/T//ccOx4mdW.s:343    .text.blink:0000000000000034 .L0 
/var/folders/_0/fbrtbm_x4pbf1b72ynjm3v580000gn/T//ccOx4mdW.s:353    .text.keyPad:0000000000000000 .L0 
/var/folders/_0/fbrtbm_x4pbf1b72ynjm3v580000gn/T//ccOx4mdW.s:355    .text.keyPad:0000000000000000 .L0 
/var/folders/_0/fbrtbm_x4pbf1b72ynjm3v580000gn/T//ccOx4mdW.s:356    .text.keyPad:0000000000000000 .L0 
/var/folders/_0/fbrtbm_x4pbf1b72ynjm3v580000gn/T//ccOx4mdW.s:363    .text.keyPad:0000000000000010 .L0 
/var/folders/_0/fbrtbm_x4pbf1b72ynjm3v580000gn/T//ccOx4mdW.s:364    .text.keyPad:0000000000000010 .L0 
/var/folders/_0/fbrtbm_x4pbf1b72ynjm3v580000gn/T//ccOx4mdW.s:370    .text.keyPad:0000000000000016 .L0 
/var/folders/_0/fbrtbm_x4pbf1b72ynjm3v580000gn/T//ccOx4mdW.s:371    .text.keyPad:0000000000000016 .L0 
/var/folders/_0/fbrtbm_x4pbf1b72ynjm3v580000gn/T//ccOx4mdW.s:375    .text.keyPad:0000000000000018 .L0 
/var/folders/_0/fbrtbm_x4pbf1b72ynjm3v580000gn/T//ccOx4mdW.s:378    .text.keyPad:000000000000001e .L0 
/var/folders/_0/fbrtbm_x4pbf1b72ynjm3v580000gn/T//ccOx4mdW.s:379    .text.keyPad:000000000000001e .L0 
/var/folders/_0/fbrtbm_x4pbf1b72ynjm3v580000gn/T//ccOx4mdW.s:383    .text.keyPad:0000000000000026 .L0 
/var/folders/_0/fbrtbm_x4pbf1b72ynjm3v580000gn/T//ccOx4mdW.s:386    .text.keyPad:0000000000000028 .L0 
/var/folders/_0/fbrtbm_x4pbf1b72ynjm3v580000gn/T//ccOx4mdW.s:387    .text.keyPad:0000000000000028 .L0 
/var/folders/_0/fbrtbm_x4pbf1b72ynjm3v580000gn/T//ccOx4mdW.s:389    .text.keyPad:000000000000002c .L0 
/var/folders/_0/fbrtbm_x4pbf1b72ynjm3v580000gn/T//ccOx4mdW.s:390    .text.keyPad:000000000000002c .L0 
/var/folders/_0/fbrtbm_x4pbf1b72ynjm3v580000gn/T//ccOx4mdW.s:392    .text.keyPad:0000000000000030 .L0 
/var/folders/_0/fbrtbm_x4pbf1b72ynjm3v580000gn/T//ccOx4mdW.s:393    .text.keyPad:0000000000000032 .L0 
/var/folders/_0/fbrtbm_x4pbf1b72ynjm3v580000gn/T//ccOx4mdW.s:403    .text.motorStep:0000000000000000 .L0 
/var/folders/_0/fbrtbm_x4pbf1b72ynjm3v580000gn/T//ccOx4mdW.s:405    .text.motorStep:0000000000000000 .L0 
/var/folders/_0/fbrtbm_x4pbf1b72ynjm3v580000gn/T//ccOx4mdW.s:406    .text.motorStep:0000000000000000 .L0 
/var/folders/_0/fbrtbm_x4pbf1b72ynjm3v580000gn/T//ccOx4mdW.s:407    .text.motorStep:0000000000000000 .L0 
/var/folders/_0/fbrtbm_x4pbf1b72ynjm3v580000gn/T//ccOx4mdW.s:409    .text.motorStep:0000000000000002 .L0 
/var/folders/_0/fbrtbm_x4pbf1b72ynjm3v580000gn/T//ccOx4mdW.s:411    .text.motorStep:0000000000000004 .L0 
/var/folders/_0/fbrtbm_x4pbf1b72ynjm3v580000gn/T//ccOx4mdW.s:415    .text.motorStep:000000000000000a .L0 
/var/folders/_0/fbrtbm_x4pbf1b72ynjm3v580000gn/T//ccOx4mdW.s:416    .text.motorStep:000000000000000a .L0 
/var/folders/_0/fbrtbm_x4pbf1b72ynjm3v580000gn/T//ccOx4mdW.s:417    .text.motorStep:000000000000000a .L0 
/var/folders/_0/fbrtbm_x4pbf1b72ynjm3v580000gn/T//ccOx4mdW.s:419    .text.motorStep:000000000000000a .L0 
/var/folders/_0/fbrtbm_x4pbf1b72ynjm3v580000gn/T//ccOx4mdW.s:421    .text.motorStep:000000000000000c .L0 
/var/folders/_0/fbrtbm_x4pbf1b72ynjm3v580000gn/T//ccOx4mdW.s:506    .text.printStop:0000000000000000 printStop
/var/folders/_0/fbrtbm_x4pbf1b72ynjm3v580000gn/T//ccOx4mdW.s:423    .text.motorStep:0000000000000010 .L0 
/var/folders/_0/fbrtbm_x4pbf1b72ynjm3v580000gn/T//ccOx4mdW.s:426    .text.motorStep:0000000000000018 .L0 
/var/folders/_0/fbrtbm_x4pbf1b72ynjm3v580000gn/T//ccOx4mdW.s:427    .text.motorStep:0000000000000018 .L0 
/var/folders/_0/fbrtbm_x4pbf1b72ynjm3v580000gn/T//ccOx4mdW.s:432    .text.motorStep:000000000000001e .L0 
/var/folders/_0/fbrtbm_x4pbf1b72ynjm3v580000gn/T//ccOx4mdW.s:433    .text.motorStep:0000000000000020 .L0 
/var/folders/_0/fbrtbm_x4pbf1b72ynjm3v580000gn/T//ccOx4mdW.s:434    .text.motorStep:0000000000000020 .L0 
/var/folders/_0/fbrtbm_x4pbf1b72ynjm3v580000gn/T//ccOx4mdW.s:436    .text.motorStep:0000000000000022 .L0 
/var/folders/_0/fbrtbm_x4pbf1b72ynjm3v580000gn/T//ccOx4mdW.s:438    .text.motorStep:0000000000000024 .L0 
/var/folders/_0/fbrtbm_x4pbf1b72ynjm3v580000gn/T//ccOx4mdW.s:442    .text.motorStep:0000000000000026 .L0 
/var/folders/_0/fbrtbm_x4pbf1b72ynjm3v580000gn/T//ccOx4mdW.s:447    .text.motorStep:0000000000000028 .L0 
/var/folders/_0/fbrtbm_x4pbf1b72ynjm3v580000gn/T//ccOx4mdW.s:449    .text.motorStep:0000000000000028 .L0 
/var/folders/_0/fbrtbm_x4pbf1b72ynjm3v580000gn/T//ccOx4mdW.s:452    .text.motorStep:000000000000002c .L0 
/var/folders/_0/fbrtbm_x4pbf1b72ynjm3v580000gn/T//ccOx4mdW.s:453    .text.motorStep:000000000000002c .L0 
/var/folders/_0/fbrtbm_x4pbf1b72ynjm3v580000gn/T//ccOx4mdW.s:547    .text.printGo:0000000000000000 printGo
/var/folders/_0/fbrtbm_x4pbf1b72ynjm3v580000gn/T//ccOx4mdW.s:458    .text.motorStep:0000000000000030 .L0 
/var/folders/_0/fbrtbm_x4pbf1b72ynjm3v580000gn/T//ccOx4mdW.s:461    .text.motorStep:0000000000000038 .L0 
/var/folders/_0/fbrtbm_x4pbf1b72ynjm3v580000gn/T//ccOx4mdW.s:462    .text.motorStep:0000000000000038 .L0 
/var/folders/_0/fbrtbm_x4pbf1b72ynjm3v580000gn/T//ccOx4mdW.s:464    .text.motorStep:000000000000003a .L0 
GAS LISTING /var/folders/_0/fbrtbm_x4pbf1b72ynjm3v580000gn/T//ccOx4mdW.s 			page 21


/var/folders/_0/fbrtbm_x4pbf1b72ynjm3v580000gn/T//ccOx4mdW.s:466    .text.motorStep:000000000000003c .L0 
/var/folders/_0/fbrtbm_x4pbf1b72ynjm3v580000gn/T//ccOx4mdW.s:469    .text.motorStep:0000000000000040 .L0 
/var/folders/_0/fbrtbm_x4pbf1b72ynjm3v580000gn/T//ccOx4mdW.s:472    .text.motorStep:0000000000000048 .L0 
/var/folders/_0/fbrtbm_x4pbf1b72ynjm3v580000gn/T//ccOx4mdW.s:473    .text.motorStep:0000000000000048 .L0 
/var/folders/_0/fbrtbm_x4pbf1b72ynjm3v580000gn/T//ccOx4mdW.s:476    .text.motorStep:000000000000004c .L0 
/var/folders/_0/fbrtbm_x4pbf1b72ynjm3v580000gn/T//ccOx4mdW.s:477    .text.motorStep:000000000000004c .L0 
/var/folders/_0/fbrtbm_x4pbf1b72ynjm3v580000gn/T//ccOx4mdW.s:485    .text.motorStep:0000000000000054 .L0 
/var/folders/_0/fbrtbm_x4pbf1b72ynjm3v580000gn/T//ccOx4mdW.s:486    .text.motorStep:0000000000000054 .L0 
/var/folders/_0/fbrtbm_x4pbf1b72ynjm3v580000gn/T//ccOx4mdW.s:488    .text.motorStep:0000000000000056 .L0 
/var/folders/_0/fbrtbm_x4pbf1b72ynjm3v580000gn/T//ccOx4mdW.s:490    .text.motorStep:0000000000000058 .L0 
/var/folders/_0/fbrtbm_x4pbf1b72ynjm3v580000gn/T//ccOx4mdW.s:491    .text.motorStep:0000000000000058 .L0 
/var/folders/_0/fbrtbm_x4pbf1b72ynjm3v580000gn/T//ccOx4mdW.s:494    .text.motorStep:000000000000005c .L0 
/var/folders/_0/fbrtbm_x4pbf1b72ynjm3v580000gn/T//ccOx4mdW.s:495    .text.motorStep:000000000000005c .L0 
/var/folders/_0/fbrtbm_x4pbf1b72ynjm3v580000gn/T//ccOx4mdW.s:498    .text.motorStep:0000000000000062 .L0 
/var/folders/_0/fbrtbm_x4pbf1b72ynjm3v580000gn/T//ccOx4mdW.s:499    .text.motorStep:0000000000000064 .L0 
/var/folders/_0/fbrtbm_x4pbf1b72ynjm3v580000gn/T//ccOx4mdW.s:509    .text.printStop:0000000000000000 .L0 
/var/folders/_0/fbrtbm_x4pbf1b72ynjm3v580000gn/T//ccOx4mdW.s:510    .text.printStop:0000000000000000 .L0 
/var/folders/_0/fbrtbm_x4pbf1b72ynjm3v580000gn/T//ccOx4mdW.s:511    .text.printStop:0000000000000000 .L0 
/var/folders/_0/fbrtbm_x4pbf1b72ynjm3v580000gn/T//ccOx4mdW.s:512    .text.printStop:0000000000000000 .L0 
/var/folders/_0/fbrtbm_x4pbf1b72ynjm3v580000gn/T//ccOx4mdW.s:514    .text.printStop:0000000000000002 .L0 
/var/folders/_0/fbrtbm_x4pbf1b72ynjm3v580000gn/T//ccOx4mdW.s:516    .text.printStop:0000000000000002 .L0 
/var/folders/_0/fbrtbm_x4pbf1b72ynjm3v580000gn/T//ccOx4mdW.s:519    .text.printStop:0000000000000008 .L0 
/var/folders/_0/fbrtbm_x4pbf1b72ynjm3v580000gn/T//ccOx4mdW.s:520    .text.printStop:000000000000000a .L0 
/var/folders/_0/fbrtbm_x4pbf1b72ynjm3v580000gn/T//ccOx4mdW.s:522    .text.printStop:000000000000000a .L0 
/var/folders/_0/fbrtbm_x4pbf1b72ynjm3v580000gn/T//ccOx4mdW.s:525    .text.printStop:0000000000000012 .L0 
/var/folders/_0/fbrtbm_x4pbf1b72ynjm3v580000gn/T//ccOx4mdW.s:526    .text.printStop:0000000000000012 .L0 
/var/folders/_0/fbrtbm_x4pbf1b72ynjm3v580000gn/T//ccOx4mdW.s:527    .text.printStop:0000000000000014 .L0 
/var/folders/_0/fbrtbm_x4pbf1b72ynjm3v580000gn/T//ccOx4mdW.s:529    .text.printStop:0000000000000014 .L0 
/var/folders/_0/fbrtbm_x4pbf1b72ynjm3v580000gn/T//ccOx4mdW.s:531    .text.printStop:0000000000000018 .L0 
/var/folders/_0/fbrtbm_x4pbf1b72ynjm3v580000gn/T//ccOx4mdW.s:532    .text.printStop:0000000000000018 .L0 
/var/folders/_0/fbrtbm_x4pbf1b72ynjm3v580000gn/T//ccOx4mdW.s:534    .text.printStop:000000000000001a .L0 
/var/folders/_0/fbrtbm_x4pbf1b72ynjm3v580000gn/T//ccOx4mdW.s:536    .text.printStop:000000000000001c .L0 
/var/folders/_0/fbrtbm_x4pbf1b72ynjm3v580000gn/T//ccOx4mdW.s:538    .text.printStop:000000000000001c .L0 
/var/folders/_0/fbrtbm_x4pbf1b72ynjm3v580000gn/T//ccOx4mdW.s:540    .text.printStop:0000000000000024 .L0 
/var/folders/_0/fbrtbm_x4pbf1b72ynjm3v580000gn/T//ccOx4mdW.s:550    .text.printGo:0000000000000000 .L0 
/var/folders/_0/fbrtbm_x4pbf1b72ynjm3v580000gn/T//ccOx4mdW.s:551    .text.printGo:0000000000000000 .L0 
/var/folders/_0/fbrtbm_x4pbf1b72ynjm3v580000gn/T//ccOx4mdW.s:552    .text.printGo:0000000000000000 .L0 
/var/folders/_0/fbrtbm_x4pbf1b72ynjm3v580000gn/T//ccOx4mdW.s:553    .text.printGo:0000000000000000 .L0 
/var/folders/_0/fbrtbm_x4pbf1b72ynjm3v580000gn/T//ccOx4mdW.s:555    .text.printGo:0000000000000002 .L0 
/var/folders/_0/fbrtbm_x4pbf1b72ynjm3v580000gn/T//ccOx4mdW.s:557    .text.printGo:0000000000000002 .L0 
/var/folders/_0/fbrtbm_x4pbf1b72ynjm3v580000gn/T//ccOx4mdW.s:560    .text.printGo:0000000000000006 .L0 
/var/folders/_0/fbrtbm_x4pbf1b72ynjm3v580000gn/T//ccOx4mdW.s:561    .text.printGo:0000000000000008 .L0 
/var/folders/_0/fbrtbm_x4pbf1b72ynjm3v580000gn/T//ccOx4mdW.s:563    .text.printGo:0000000000000008 .L0 
/var/folders/_0/fbrtbm_x4pbf1b72ynjm3v580000gn/T//ccOx4mdW.s:566    .text.printGo:0000000000000010 .L0 
/var/folders/_0/fbrtbm_x4pbf1b72ynjm3v580000gn/T//ccOx4mdW.s:567    .text.printGo:0000000000000010 .L0 
/var/folders/_0/fbrtbm_x4pbf1b72ynjm3v580000gn/T//ccOx4mdW.s:568    .text.printGo:0000000000000012 .L0 
/var/folders/_0/fbrtbm_x4pbf1b72ynjm3v580000gn/T//ccOx4mdW.s:570    .text.printGo:0000000000000012 .L0 
/var/folders/_0/fbrtbm_x4pbf1b72ynjm3v580000gn/T//ccOx4mdW.s:572    .text.printGo:0000000000000014 .L0 
/var/folders/_0/fbrtbm_x4pbf1b72ynjm3v580000gn/T//ccOx4mdW.s:573    .text.printGo:0000000000000014 .L0 
/var/folders/_0/fbrtbm_x4pbf1b72ynjm3v580000gn/T//ccOx4mdW.s:575    .text.printGo:0000000000000016 .L0 
/var/folders/_0/fbrtbm_x4pbf1b72ynjm3v580000gn/T//ccOx4mdW.s:577    .text.printGo:0000000000000018 .L0 
/var/folders/_0/fbrtbm_x4pbf1b72ynjm3v580000gn/T//ccOx4mdW.s:579    .text.printGo:0000000000000018 .L0 
/var/folders/_0/fbrtbm_x4pbf1b72ynjm3v580000gn/T//ccOx4mdW.s:581    .text.printGo:0000000000000020 .L0 
/var/folders/_0/fbrtbm_x4pbf1b72ynjm3v580000gn/T//ccOx4mdW.s:586    .rodata:0000000000000000 .LANCHOR0
/var/folders/_0/fbrtbm_x4pbf1b72ynjm3v580000gn/T//ccOx4mdW.s:280    .text.startup.main:00000000000001c6 .L0 
/var/folders/_0/fbrtbm_x4pbf1b72ynjm3v580000gn/T//ccOx4mdW.s:346    .text.blink:0000000000000034 .L0 
/var/folders/_0/fbrtbm_x4pbf1b72ynjm3v580000gn/T//ccOx4mdW.s:396    .text.keyPad:0000000000000032 .L0 
GAS LISTING /var/folders/_0/fbrtbm_x4pbf1b72ynjm3v580000gn/T//ccOx4mdW.s 			page 22


/var/folders/_0/fbrtbm_x4pbf1b72ynjm3v580000gn/T//ccOx4mdW.s:502    .text.motorStep:0000000000000064 .L0 
/var/folders/_0/fbrtbm_x4pbf1b72ynjm3v580000gn/T//ccOx4mdW.s:543    .text.printStop:0000000000000024 .L0 
/var/folders/_0/fbrtbm_x4pbf1b72ynjm3v580000gn/T//ccOx4mdW.s:584    .text.printGo:0000000000000020 .L0 
                     .debug_frame:0000000000000000 .L0 
/var/folders/_0/fbrtbm_x4pbf1b72ynjm3v580000gn/T//ccOx4mdW.s:121    .text.startup.main:000000000000008e .L2
/var/folders/_0/fbrtbm_x4pbf1b72ynjm3v580000gn/T//ccOx4mdW.s:140    .text.startup.main:00000000000000ae .L3
/var/folders/_0/fbrtbm_x4pbf1b72ynjm3v580000gn/T//ccOx4mdW.s:265    .text.startup.main:00000000000001aa .L4
/var/folders/_0/fbrtbm_x4pbf1b72ynjm3v580000gn/T//ccOx4mdW.s:258    .text.startup.main:000000000000019c .L6
/var/folders/_0/fbrtbm_x4pbf1b72ynjm3v580000gn/T//ccOx4mdW.s:233    .text.startup.main:000000000000016c .L5
/var/folders/_0/fbrtbm_x4pbf1b72ynjm3v580000gn/T//ccOx4mdW.s:341    .text.blink:0000000000000032 .L16
/var/folders/_0/fbrtbm_x4pbf1b72ynjm3v580000gn/T//ccOx4mdW.s:384    .text.keyPad:0000000000000028 .L20
/var/folders/_0/fbrtbm_x4pbf1b72ynjm3v580000gn/T//ccOx4mdW.s:373    .text.keyPad:0000000000000018 .L21
/var/folders/_0/fbrtbm_x4pbf1b72ynjm3v580000gn/T//ccOx4mdW.s:369    .text.keyPad:0000000000000016 .L19
/var/folders/_0/fbrtbm_x4pbf1b72ynjm3v580000gn/T//ccOx4mdW.s:361    .text.keyPad:0000000000000010 .L22
/var/folders/_0/fbrtbm_x4pbf1b72ynjm3v580000gn/T//ccOx4mdW.s:445    .text.motorStep:0000000000000028 .L26
/var/folders/_0/fbrtbm_x4pbf1b72ynjm3v580000gn/T//ccOx4mdW.s:481    .text.motorStep:0000000000000054 .L28
/var/folders/_0/fbrtbm_x4pbf1b72ynjm3v580000gn/T//ccOx4mdW.s:430    .text.motorStep:000000000000001e .L25
/var/folders/_0/fbrtbm_x4pbf1b72ynjm3v580000gn/T//ccOx4mdW.s:5205   .debug_abbrev:0000000000000000 .Ldebug_abbrev0
/var/folders/_0/fbrtbm_x4pbf1b72ynjm3v580000gn/T//ccOx4mdW.s:6532   .debug_str:00000000000001ef .LASF382
/var/folders/_0/fbrtbm_x4pbf1b72ynjm3v580000gn/T//ccOx4mdW.s:6862   .debug_str:0000000000000992 .LASF383
/var/folders/_0/fbrtbm_x4pbf1b72ynjm3v580000gn/T//ccOx4mdW.s:6966   .debug_str:0000000000000bee .LASF384
/var/folders/_0/fbrtbm_x4pbf1b72ynjm3v580000gn/T//ccOx4mdW.s:6426   .debug_ranges:0000000000000000 .Ldebug_ranges0
/var/folders/_0/fbrtbm_x4pbf1b72ynjm3v580000gn/T//ccOx4mdW.s:6448   .debug_line:0000000000000000 .Ldebug_line0
/var/folders/_0/fbrtbm_x4pbf1b72ynjm3v580000gn/T//ccOx4mdW.s:6898   .debug_str:0000000000000a53 .LASF0
/var/folders/_0/fbrtbm_x4pbf1b72ynjm3v580000gn/T//ccOx4mdW.s:6636   .debug_str:00000000000004c3 .LASF1
/var/folders/_0/fbrtbm_x4pbf1b72ynjm3v580000gn/T//ccOx4mdW.s:6570   .debug_str:0000000000000349 .LASF4
/var/folders/_0/fbrtbm_x4pbf1b72ynjm3v580000gn/T//ccOx4mdW.s:6648   .debug_str:0000000000000523 .LASF2
/var/folders/_0/fbrtbm_x4pbf1b72ynjm3v580000gn/T//ccOx4mdW.s:7096   .debug_str:0000000000000e92 .LASF3
/var/folders/_0/fbrtbm_x4pbf1b72ynjm3v580000gn/T//ccOx4mdW.s:6704   .debug_str:000000000000064d .LASF5
/var/folders/_0/fbrtbm_x4pbf1b72ynjm3v580000gn/T//ccOx4mdW.s:7178   .debug_str:0000000000001056 .LASF6
/var/folders/_0/fbrtbm_x4pbf1b72ynjm3v580000gn/T//ccOx4mdW.s:7194   .debug_str:00000000000010b4 .LASF7
/var/folders/_0/fbrtbm_x4pbf1b72ynjm3v580000gn/T//ccOx4mdW.s:6594   .debug_str:00000000000003c8 .LASF8
/var/folders/_0/fbrtbm_x4pbf1b72ynjm3v580000gn/T//ccOx4mdW.s:6838   .debug_str:0000000000000916 .LASF9
/var/folders/_0/fbrtbm_x4pbf1b72ynjm3v580000gn/T//ccOx4mdW.s:6776   .debug_str:00000000000007c5 .LASF10
/var/folders/_0/fbrtbm_x4pbf1b72ynjm3v580000gn/T//ccOx4mdW.s:6844   .debug_str:0000000000000937 .LASF11
/var/folders/_0/fbrtbm_x4pbf1b72ynjm3v580000gn/T//ccOx4mdW.s:6772   .debug_str:00000000000007b5 .LASF12
/var/folders/_0/fbrtbm_x4pbf1b72ynjm3v580000gn/T//ccOx4mdW.s:6990   .debug_str:0000000000000c96 .LASF13
/var/folders/_0/fbrtbm_x4pbf1b72ynjm3v580000gn/T//ccOx4mdW.s:6638   .debug_str:00000000000004cf .LASF14
/var/folders/_0/fbrtbm_x4pbf1b72ynjm3v580000gn/T//ccOx4mdW.s:6998   .debug_str:0000000000000cca .LASF15
/var/folders/_0/fbrtbm_x4pbf1b72ynjm3v580000gn/T//ccOx4mdW.s:6486   .debug_str:00000000000000ea .LASF16
/var/folders/_0/fbrtbm_x4pbf1b72ynjm3v580000gn/T//ccOx4mdW.s:7152   .debug_str:0000000000000fc2 .LASF17
/var/folders/_0/fbrtbm_x4pbf1b72ynjm3v580000gn/T//ccOx4mdW.s:7098   .debug_str:0000000000000e9c .LASF18
/var/folders/_0/fbrtbm_x4pbf1b72ynjm3v580000gn/T//ccOx4mdW.s:6790   .debug_str:0000000000000826 .LASF91
/var/folders/_0/fbrtbm_x4pbf1b72ynjm3v580000gn/T//ccOx4mdW.s:6954   .debug_str:0000000000000bae .LASF19
/var/folders/_0/fbrtbm_x4pbf1b72ynjm3v580000gn/T//ccOx4mdW.s:6656   .debug_str:0000000000000552 .LASF20
/var/folders/_0/fbrtbm_x4pbf1b72ynjm3v580000gn/T//ccOx4mdW.s:6846   .debug_str:0000000000000945 .LASF21
/var/folders/_0/fbrtbm_x4pbf1b72ynjm3v580000gn/T//ccOx4mdW.s:6724   .debug_str:00000000000006bb .LASF22
/var/folders/_0/fbrtbm_x4pbf1b72ynjm3v580000gn/T//ccOx4mdW.s:7080   .debug_str:0000000000000e42 .LASF23
/var/folders/_0/fbrtbm_x4pbf1b72ynjm3v580000gn/T//ccOx4mdW.s:6738   .debug_str:00000000000006fe .LASF24
/var/folders/_0/fbrtbm_x4pbf1b72ynjm3v580000gn/T//ccOx4mdW.s:7196   .debug_str:00000000000010be .LASF25
/var/folders/_0/fbrtbm_x4pbf1b72ynjm3v580000gn/T//ccOx4mdW.s:6686   .debug_str:00000000000005f3 .LASF26
/var/folders/_0/fbrtbm_x4pbf1b72ynjm3v580000gn/T//ccOx4mdW.s:7206   .debug_str:00000000000010ef .LASF27
/var/folders/_0/fbrtbm_x4pbf1b72ynjm3v580000gn/T//ccOx4mdW.s:7204   .debug_str:00000000000010e7 .LASF28
/var/folders/_0/fbrtbm_x4pbf1b72ynjm3v580000gn/T//ccOx4mdW.s:7070   .debug_str:0000000000000e16 .LASF29
/var/folders/_0/fbrtbm_x4pbf1b72ynjm3v580000gn/T//ccOx4mdW.s:7202   .debug_str:00000000000010d3 .LASF30
/var/folders/_0/fbrtbm_x4pbf1b72ynjm3v580000gn/T//ccOx4mdW.s:7166   .debug_str:0000000000001020 .LASF31
/var/folders/_0/fbrtbm_x4pbf1b72ynjm3v580000gn/T//ccOx4mdW.s:6730   .debug_str:00000000000006d7 .LASF32
GAS LISTING /var/folders/_0/fbrtbm_x4pbf1b72ynjm3v580000gn/T//ccOx4mdW.s 			page 23


/var/folders/_0/fbrtbm_x4pbf1b72ynjm3v580000gn/T//ccOx4mdW.s:6668   .debug_str:0000000000000583 .LASF33
/var/folders/_0/fbrtbm_x4pbf1b72ynjm3v580000gn/T//ccOx4mdW.s:6750   .debug_str:0000000000000737 .LASF34
/var/folders/_0/fbrtbm_x4pbf1b72ynjm3v580000gn/T//ccOx4mdW.s:7200   .debug_str:00000000000010cb .LASF35
/var/folders/_0/fbrtbm_x4pbf1b72ynjm3v580000gn/T//ccOx4mdW.s:6550   .debug_str:00000000000002d1 .LASF36
/var/folders/_0/fbrtbm_x4pbf1b72ynjm3v580000gn/T//ccOx4mdW.s:7188   .debug_str:0000000000001097 .LASF37
/var/folders/_0/fbrtbm_x4pbf1b72ynjm3v580000gn/T//ccOx4mdW.s:7016   .debug_str:0000000000000d18 .LASF38
/var/folders/_0/fbrtbm_x4pbf1b72ynjm3v580000gn/T//ccOx4mdW.s:6632   .debug_str:00000000000004af .LASF39
/var/folders/_0/fbrtbm_x4pbf1b72ynjm3v580000gn/T//ccOx4mdW.s:6964   .debug_str:0000000000000be2 .LASF40
/var/folders/_0/fbrtbm_x4pbf1b72ynjm3v580000gn/T//ccOx4mdW.s:7156   .debug_str:0000000000000fdd .LASF41
/var/folders/_0/fbrtbm_x4pbf1b72ynjm3v580000gn/T//ccOx4mdW.s:7062   .debug_str:0000000000000df0 .LASF42
/var/folders/_0/fbrtbm_x4pbf1b72ynjm3v580000gn/T//ccOx4mdW.s:7186   .debug_str:000000000000108d .LASF43
/var/folders/_0/fbrtbm_x4pbf1b72ynjm3v580000gn/T//ccOx4mdW.s:7214   .debug_str:0000000000001122 .LASF44
/var/folders/_0/fbrtbm_x4pbf1b72ynjm3v580000gn/T//ccOx4mdW.s:6768   .debug_str:00000000000007a2 .LASF45
/var/folders/_0/fbrtbm_x4pbf1b72ynjm3v580000gn/T//ccOx4mdW.s:6722   .debug_str:00000000000006b2 .LASF46
/var/folders/_0/fbrtbm_x4pbf1b72ynjm3v580000gn/T//ccOx4mdW.s:7174   .debug_str:0000000000001044 .LASF47
/var/folders/_0/fbrtbm_x4pbf1b72ynjm3v580000gn/T//ccOx4mdW.s:7074   .debug_str:0000000000000e27 .LASF48
/var/folders/_0/fbrtbm_x4pbf1b72ynjm3v580000gn/T//ccOx4mdW.s:7014   .debug_str:0000000000000d11 .LASF49
/var/folders/_0/fbrtbm_x4pbf1b72ynjm3v580000gn/T//ccOx4mdW.s:6616   .debug_str:000000000000044d .LASF50
/var/folders/_0/fbrtbm_x4pbf1b72ynjm3v580000gn/T//ccOx4mdW.s:6912   .debug_str:0000000000000ab6 .LASF51
/var/folders/_0/fbrtbm_x4pbf1b72ynjm3v580000gn/T//ccOx4mdW.s:6658   .debug_str:0000000000000559 .LASF52
/var/folders/_0/fbrtbm_x4pbf1b72ynjm3v580000gn/T//ccOx4mdW.s:6662   .debug_str:0000000000000567 .LASF53
/var/folders/_0/fbrtbm_x4pbf1b72ynjm3v580000gn/T//ccOx4mdW.s:7002   .debug_str:0000000000000cdf .LASF54
/var/folders/_0/fbrtbm_x4pbf1b72ynjm3v580000gn/T//ccOx4mdW.s:6514   .debug_str:000000000000017e .LASF55
/var/folders/_0/fbrtbm_x4pbf1b72ynjm3v580000gn/T//ccOx4mdW.s:6680   .debug_str:00000000000005c2 .LASF56
/var/folders/_0/fbrtbm_x4pbf1b72ynjm3v580000gn/T//ccOx4mdW.s:6824   .debug_str:00000000000008d4 .LASF57
/var/folders/_0/fbrtbm_x4pbf1b72ynjm3v580000gn/T//ccOx4mdW.s:6702   .debug_str:0000000000000643 .LASF58
/var/folders/_0/fbrtbm_x4pbf1b72ynjm3v580000gn/T//ccOx4mdW.s:7218   .debug_str:0000000000001135 .LASF59
/var/folders/_0/fbrtbm_x4pbf1b72ynjm3v580000gn/T//ccOx4mdW.s:6498   .debug_str:000000000000013a .LASF60
/var/folders/_0/fbrtbm_x4pbf1b72ynjm3v580000gn/T//ccOx4mdW.s:6714   .debug_str:0000000000000688 .LASF61
/var/folders/_0/fbrtbm_x4pbf1b72ynjm3v580000gn/T//ccOx4mdW.s:6716   .debug_str:0000000000000693 .LASF62
/var/folders/_0/fbrtbm_x4pbf1b72ynjm3v580000gn/T//ccOx4mdW.s:7116   .debug_str:0000000000000ef4 .LASF63
/var/folders/_0/fbrtbm_x4pbf1b72ynjm3v580000gn/T//ccOx4mdW.s:6666   .debug_str:000000000000057b .LASF64
/var/folders/_0/fbrtbm_x4pbf1b72ynjm3v580000gn/T//ccOx4mdW.s:6588   .debug_str:00000000000003a8 .LASF65
/var/folders/_0/fbrtbm_x4pbf1b72ynjm3v580000gn/T//ccOx4mdW.s:6472   .debug_str:0000000000000090 .LASF66
/var/folders/_0/fbrtbm_x4pbf1b72ynjm3v580000gn/T//ccOx4mdW.s:7012   .debug_str:0000000000000d09 .LASF67
/var/folders/_0/fbrtbm_x4pbf1b72ynjm3v580000gn/T//ccOx4mdW.s:6590   .debug_str:00000000000003b0 .LASF68
/var/folders/_0/fbrtbm_x4pbf1b72ynjm3v580000gn/T//ccOx4mdW.s:6972   .debug_str:0000000000000c3f .LASF69
/var/folders/_0/fbrtbm_x4pbf1b72ynjm3v580000gn/T//ccOx4mdW.s:6754   .debug_str:000000000000074a .LASF70
/var/folders/_0/fbrtbm_x4pbf1b72ynjm3v580000gn/T//ccOx4mdW.s:7224   .debug_str:0000000000001153 .LASF71
/var/folders/_0/fbrtbm_x4pbf1b72ynjm3v580000gn/T//ccOx4mdW.s:7110   .debug_str:0000000000000ede .LASF72
/var/folders/_0/fbrtbm_x4pbf1b72ynjm3v580000gn/T//ccOx4mdW.s:7118   .debug_str:0000000000000efc .LASF73
/var/folders/_0/fbrtbm_x4pbf1b72ynjm3v580000gn/T//ccOx4mdW.s:6676   .debug_str:00000000000005b0 .LASF74
/var/folders/_0/fbrtbm_x4pbf1b72ynjm3v580000gn/T//ccOx4mdW.s:6494   .debug_str:0000000000000117 .LASF75
/var/folders/_0/fbrtbm_x4pbf1b72ynjm3v580000gn/T//ccOx4mdW.s:6620   .debug_str:000000000000045d .LASF76
/var/folders/_0/fbrtbm_x4pbf1b72ynjm3v580000gn/T//ccOx4mdW.s:6652   .debug_str:000000000000053f .LASF77
/var/folders/_0/fbrtbm_x4pbf1b72ynjm3v580000gn/T//ccOx4mdW.s:6948   .debug_str:0000000000000b8a .LASF78
/var/folders/_0/fbrtbm_x4pbf1b72ynjm3v580000gn/T//ccOx4mdW.s:6816   .debug_str:00000000000008b1 .LASF79
/var/folders/_0/fbrtbm_x4pbf1b72ynjm3v580000gn/T//ccOx4mdW.s:6628   .debug_str:0000000000000494 .LASF80
/var/folders/_0/fbrtbm_x4pbf1b72ynjm3v580000gn/T//ccOx4mdW.s:6726   .debug_str:00000000000006c2 .LASF81
/var/folders/_0/fbrtbm_x4pbf1b72ynjm3v580000gn/T//ccOx4mdW.s:6870   .debug_str:00000000000009c4 .LASF82
/var/folders/_0/fbrtbm_x4pbf1b72ynjm3v580000gn/T//ccOx4mdW.s:7100   .debug_str:0000000000000ea5 .LASF83
/var/folders/_0/fbrtbm_x4pbf1b72ynjm3v580000gn/T//ccOx4mdW.s:6606   .debug_str:00000000000003fd .LASF84
/var/folders/_0/fbrtbm_x4pbf1b72ynjm3v580000gn/T//ccOx4mdW.s:6734   .debug_str:00000000000006ec .LASF93
/var/folders/_0/fbrtbm_x4pbf1b72ynjm3v580000gn/T//ccOx4mdW.s:6598   .debug_str:00000000000003dd .LASF85
/var/folders/_0/fbrtbm_x4pbf1b72ynjm3v580000gn/T//ccOx4mdW.s:7082   .debug_str:0000000000000e49 .LASF86
/var/folders/_0/fbrtbm_x4pbf1b72ynjm3v580000gn/T//ccOx4mdW.s:7076   .debug_str:0000000000000e30 .LASF87
/var/folders/_0/fbrtbm_x4pbf1b72ynjm3v580000gn/T//ccOx4mdW.s:6800   .debug_str:0000000000000866 .LASF88
GAS LISTING /var/folders/_0/fbrtbm_x4pbf1b72ynjm3v580000gn/T//ccOx4mdW.s 			page 24


/var/folders/_0/fbrtbm_x4pbf1b72ynjm3v580000gn/T//ccOx4mdW.s:6552   .debug_str:00000000000002db .LASF89
/var/folders/_0/fbrtbm_x4pbf1b72ynjm3v580000gn/T//ccOx4mdW.s:6976   .debug_str:0000000000000c50 .LASF90
/var/folders/_0/fbrtbm_x4pbf1b72ynjm3v580000gn/T//ccOx4mdW.s:7072   .debug_str:0000000000000e1d .LASF92
/var/folders/_0/fbrtbm_x4pbf1b72ynjm3v580000gn/T//ccOx4mdW.s:6742   .debug_str:000000000000070b .LASF94
/var/folders/_0/fbrtbm_x4pbf1b72ynjm3v580000gn/T//ccOx4mdW.s:6650   .debug_str:0000000000000531 .LASF95
/var/folders/_0/fbrtbm_x4pbf1b72ynjm3v580000gn/T//ccOx4mdW.s:6934   .debug_str:0000000000000b2a .LASF96
/var/folders/_0/fbrtbm_x4pbf1b72ynjm3v580000gn/T//ccOx4mdW.s:6660   .debug_str:0000000000000560 .LASF97
/var/folders/_0/fbrtbm_x4pbf1b72ynjm3v580000gn/T//ccOx4mdW.s:6994   .debug_str:0000000000000cbb .LASF98
/var/folders/_0/fbrtbm_x4pbf1b72ynjm3v580000gn/T//ccOx4mdW.s:6510   .debug_str:000000000000016c .LASF99
/var/folders/_0/fbrtbm_x4pbf1b72ynjm3v580000gn/T//ccOx4mdW.s:6828   .debug_str:00000000000008e6 .LASF100
/var/folders/_0/fbrtbm_x4pbf1b72ynjm3v580000gn/T//ccOx4mdW.s:6572   .debug_str:0000000000000353 .LASF101
/var/folders/_0/fbrtbm_x4pbf1b72ynjm3v580000gn/T//ccOx4mdW.s:6988   .debug_str:0000000000000c8e .LASF102
/var/folders/_0/fbrtbm_x4pbf1b72ynjm3v580000gn/T//ccOx4mdW.s:6764   .debug_str:0000000000000783 .LASF103
/var/folders/_0/fbrtbm_x4pbf1b72ynjm3v580000gn/T//ccOx4mdW.s:6712   .debug_str:0000000000000678 .LASF104
/var/folders/_0/fbrtbm_x4pbf1b72ynjm3v580000gn/T//ccOx4mdW.s:7018   .debug_str:0000000000000d1d .LASF105
/var/folders/_0/fbrtbm_x4pbf1b72ynjm3v580000gn/T//ccOx4mdW.s:6678   .debug_str:00000000000005bb .LASF106
/var/folders/_0/fbrtbm_x4pbf1b72ynjm3v580000gn/T//ccOx4mdW.s:6544   .debug_str:00000000000002b3 .LASF107
/var/folders/_0/fbrtbm_x4pbf1b72ynjm3v580000gn/T//ccOx4mdW.s:7078   .debug_str:0000000000000e35 .LASF108
/var/folders/_0/fbrtbm_x4pbf1b72ynjm3v580000gn/T//ccOx4mdW.s:6488   .debug_str:00000000000000f2 .LASF109
/var/folders/_0/fbrtbm_x4pbf1b72ynjm3v580000gn/T//ccOx4mdW.s:6586   .debug_str:0000000000000398 .LASF110
/var/folders/_0/fbrtbm_x4pbf1b72ynjm3v580000gn/T//ccOx4mdW.s:6780   .debug_str:00000000000007ed .LASF111
/var/folders/_0/fbrtbm_x4pbf1b72ynjm3v580000gn/T//ccOx4mdW.s:7028   .debug_str:0000000000000d5b .LASF112
/var/folders/_0/fbrtbm_x4pbf1b72ynjm3v580000gn/T//ccOx4mdW.s:7020   .debug_str:0000000000000d2b .LASF113
/var/folders/_0/fbrtbm_x4pbf1b72ynjm3v580000gn/T//ccOx4mdW.s:6646   .debug_str:0000000000000519 .LASF114
/var/folders/_0/fbrtbm_x4pbf1b72ynjm3v580000gn/T//ccOx4mdW.s:6878   .debug_str:00000000000009e8 .LASF115
/var/folders/_0/fbrtbm_x4pbf1b72ynjm3v580000gn/T//ccOx4mdW.s:6450   .debug_str:0000000000000000 .LASF116
/var/folders/_0/fbrtbm_x4pbf1b72ynjm3v580000gn/T//ccOx4mdW.s:6782   .debug_str:00000000000007fd .LASF117
/var/folders/_0/fbrtbm_x4pbf1b72ynjm3v580000gn/T//ccOx4mdW.s:6778   .debug_str:00000000000007d7 .LASF118
/var/folders/_0/fbrtbm_x4pbf1b72ynjm3v580000gn/T//ccOx4mdW.s:6856   .debug_str:0000000000000974 .LASF119
/var/folders/_0/fbrtbm_x4pbf1b72ynjm3v580000gn/T//ccOx4mdW.s:6692   .debug_str:0000000000000612 .LASF120
/var/folders/_0/fbrtbm_x4pbf1b72ynjm3v580000gn/T//ccOx4mdW.s:6958   .debug_str:0000000000000bc4 .LASF121
/var/folders/_0/fbrtbm_x4pbf1b72ynjm3v580000gn/T//ccOx4mdW.s:6902   .debug_str:0000000000000a6b .LASF122
/var/folders/_0/fbrtbm_x4pbf1b72ynjm3v580000gn/T//ccOx4mdW.s:6908   .debug_str:0000000000000a93 .LASF123
/var/folders/_0/fbrtbm_x4pbf1b72ynjm3v580000gn/T//ccOx4mdW.s:6930   .debug_str:0000000000000b10 .LASF124
/var/folders/_0/fbrtbm_x4pbf1b72ynjm3v580000gn/T//ccOx4mdW.s:6834   .debug_str:0000000000000901 .LASF125
/var/folders/_0/fbrtbm_x4pbf1b72ynjm3v580000gn/T//ccOx4mdW.s:7160   .debug_str:0000000000000fef .LASF126
/var/folders/_0/fbrtbm_x4pbf1b72ynjm3v580000gn/T//ccOx4mdW.s:6810   .debug_str:000000000000088e .LASF127
/var/folders/_0/fbrtbm_x4pbf1b72ynjm3v580000gn/T//ccOx4mdW.s:6644   .debug_str:000000000000050b .LASF128
/var/folders/_0/fbrtbm_x4pbf1b72ynjm3v580000gn/T//ccOx4mdW.s:7090   .debug_str:0000000000000e6b .LASF129
/var/folders/_0/fbrtbm_x4pbf1b72ynjm3v580000gn/T//ccOx4mdW.s:6454   .debug_str:0000000000000015 .LASF130
/var/folders/_0/fbrtbm_x4pbf1b72ynjm3v580000gn/T//ccOx4mdW.s:6794   .debug_str:000000000000083e .LASF131
/var/folders/_0/fbrtbm_x4pbf1b72ynjm3v580000gn/T//ccOx4mdW.s:6906   .debug_str:0000000000000a83 .LASF132
/var/folders/_0/fbrtbm_x4pbf1b72ynjm3v580000gn/T//ccOx4mdW.s:7066   .debug_str:0000000000000dfe .LASF133
/var/folders/_0/fbrtbm_x4pbf1b72ynjm3v580000gn/T//ccOx4mdW.s:6630   .debug_str:000000000000049c .LASF134
/var/folders/_0/fbrtbm_x4pbf1b72ynjm3v580000gn/T//ccOx4mdW.s:7046   .debug_str:0000000000000db3 .LASF135
/var/folders/_0/fbrtbm_x4pbf1b72ynjm3v580000gn/T//ccOx4mdW.s:6458   .debug_str:0000000000000035 .LASF136
/var/folders/_0/fbrtbm_x4pbf1b72ynjm3v580000gn/T//ccOx4mdW.s:7168   .debug_str:000000000000102b .LASF137
/var/folders/_0/fbrtbm_x4pbf1b72ynjm3v580000gn/T//ccOx4mdW.s:6464   .debug_str:0000000000000064 .LASF138
/var/folders/_0/fbrtbm_x4pbf1b72ynjm3v580000gn/T//ccOx4mdW.s:6866   .debug_str:00000000000009a6 .LASF139
/var/folders/_0/fbrtbm_x4pbf1b72ynjm3v580000gn/T//ccOx4mdW.s:6604   .debug_str:00000000000003f3 .LASF140
/var/folders/_0/fbrtbm_x4pbf1b72ynjm3v580000gn/T//ccOx4mdW.s:6770   .debug_str:00000000000007a9 .LASF141
/var/folders/_0/fbrtbm_x4pbf1b72ynjm3v580000gn/T//ccOx4mdW.s:7176   .debug_str:000000000000104c .LASF142
/var/folders/_0/fbrtbm_x4pbf1b72ynjm3v580000gn/T//ccOx4mdW.s:6818   .debug_str:00000000000008ba .LASF143
/var/folders/_0/fbrtbm_x4pbf1b72ynjm3v580000gn/T//ccOx4mdW.s:7094   .debug_str:0000000000000e89 .LASF144
/var/folders/_0/fbrtbm_x4pbf1b72ynjm3v580000gn/T//ccOx4mdW.s:6614   .debug_str:0000000000000446 .LASF145
/var/folders/_0/fbrtbm_x4pbf1b72ynjm3v580000gn/T//ccOx4mdW.s:6456   .debug_str:0000000000000027 .LASF146
/var/folders/_0/fbrtbm_x4pbf1b72ynjm3v580000gn/T//ccOx4mdW.s:6914   .debug_str:0000000000000abf .LASF147
GAS LISTING /var/folders/_0/fbrtbm_x4pbf1b72ynjm3v580000gn/T//ccOx4mdW.s 			page 25


/var/folders/_0/fbrtbm_x4pbf1b72ynjm3v580000gn/T//ccOx4mdW.s:7104   .debug_str:0000000000000ebd .LASF148
/var/folders/_0/fbrtbm_x4pbf1b72ynjm3v580000gn/T//ccOx4mdW.s:7120   .debug_str:0000000000000f04 .LASF149
/var/folders/_0/fbrtbm_x4pbf1b72ynjm3v580000gn/T//ccOx4mdW.s:6950   .debug_str:0000000000000b95 .LASF150
/var/folders/_0/fbrtbm_x4pbf1b72ynjm3v580000gn/T//ccOx4mdW.s:6982   .debug_str:0000000000000c6d .LASF151
/var/folders/_0/fbrtbm_x4pbf1b72ynjm3v580000gn/T//ccOx4mdW.s:7040   .debug_str:0000000000000d90 .LASF152
/var/folders/_0/fbrtbm_x4pbf1b72ynjm3v580000gn/T//ccOx4mdW.s:6504   .debug_str:0000000000000151 .LASF153
/var/folders/_0/fbrtbm_x4pbf1b72ynjm3v580000gn/T//ccOx4mdW.s:7086   .debug_str:0000000000000e58 .LASF154
/var/folders/_0/fbrtbm_x4pbf1b72ynjm3v580000gn/T//ccOx4mdW.s:6584   .debug_str:0000000000000390 .LASF155
/var/folders/_0/fbrtbm_x4pbf1b72ynjm3v580000gn/T//ccOx4mdW.s:6962   .debug_str:0000000000000bd9 .LASF156
/var/folders/_0/fbrtbm_x4pbf1b72ynjm3v580000gn/T//ccOx4mdW.s:6470   .debug_str:0000000000000088 .LASF157
/var/folders/_0/fbrtbm_x4pbf1b72ynjm3v580000gn/T//ccOx4mdW.s:6850   .debug_str:0000000000000955 .LASF158
/var/folders/_0/fbrtbm_x4pbf1b72ynjm3v580000gn/T//ccOx4mdW.s:7088   .debug_str:0000000000000e61 .LASF159
/var/folders/_0/fbrtbm_x4pbf1b72ynjm3v580000gn/T//ccOx4mdW.s:7154   .debug_str:0000000000000fcb .LASF160
/var/folders/_0/fbrtbm_x4pbf1b72ynjm3v580000gn/T//ccOx4mdW.s:6566   .debug_str:0000000000000326 .LASF161
/var/folders/_0/fbrtbm_x4pbf1b72ynjm3v580000gn/T//ccOx4mdW.s:6654   .debug_str:000000000000054b .LASF162
/var/folders/_0/fbrtbm_x4pbf1b72ynjm3v580000gn/T//ccOx4mdW.s:6864   .debug_str:0000000000000999 .LASF163
/var/folders/_0/fbrtbm_x4pbf1b72ynjm3v580000gn/T//ccOx4mdW.s:6940   .debug_str:0000000000000b42 .LASF164
/var/folders/_0/fbrtbm_x4pbf1b72ynjm3v580000gn/T//ccOx4mdW.s:6836   .debug_str:000000000000090e .LASF165
/var/folders/_0/fbrtbm_x4pbf1b72ynjm3v580000gn/T//ccOx4mdW.s:6452   .debug_str:0000000000000009 .LASF166
/var/folders/_0/fbrtbm_x4pbf1b72ynjm3v580000gn/T//ccOx4mdW.s:7084   .debug_str:0000000000000e50 .LASF167
/var/folders/_0/fbrtbm_x4pbf1b72ynjm3v580000gn/T//ccOx4mdW.s:6476   .debug_str:00000000000000a1 .LASF168
/var/folders/_0/fbrtbm_x4pbf1b72ynjm3v580000gn/T//ccOx4mdW.s:6986   .debug_str:0000000000000c85 .LASF169
/var/folders/_0/fbrtbm_x4pbf1b72ynjm3v580000gn/T//ccOx4mdW.s:6684   .debug_str:00000000000005e9 .LASF170
/var/folders/_0/fbrtbm_x4pbf1b72ynjm3v580000gn/T//ccOx4mdW.s:6792   .debug_str:0000000000000836 .LASF171
/var/folders/_0/fbrtbm_x4pbf1b72ynjm3v580000gn/T//ccOx4mdW.s:6528   .debug_str:00000000000001df .LASF172
/var/folders/_0/fbrtbm_x4pbf1b72ynjm3v580000gn/T//ccOx4mdW.s:6904   .debug_str:0000000000000a7a .LASF173
/var/folders/_0/fbrtbm_x4pbf1b72ynjm3v580000gn/T//ccOx4mdW.s:7162   .debug_str:0000000000000ff9 .LASF174
/var/folders/_0/fbrtbm_x4pbf1b72ynjm3v580000gn/T//ccOx4mdW.s:6674   .debug_str:00000000000005a5 .LASF175
/var/folders/_0/fbrtbm_x4pbf1b72ynjm3v580000gn/T//ccOx4mdW.s:6520   .debug_str:00000000000001c1 .LASF176
/var/folders/_0/fbrtbm_x4pbf1b72ynjm3v580000gn/T//ccOx4mdW.s:6744   .debug_str:0000000000000714 .LASF177
/var/folders/_0/fbrtbm_x4pbf1b72ynjm3v580000gn/T//ccOx4mdW.s:6960   .debug_str:0000000000000bd1 .LASF178
/var/folders/_0/fbrtbm_x4pbf1b72ynjm3v580000gn/T//ccOx4mdW.s:7184   .debug_str:000000000000107c .LASF179
/var/folders/_0/fbrtbm_x4pbf1b72ynjm3v580000gn/T//ccOx4mdW.s:7054   .debug_str:0000000000000dd8 .LASF180
/var/folders/_0/fbrtbm_x4pbf1b72ynjm3v580000gn/T//ccOx4mdW.s:7050   .debug_str:0000000000000dc3 .LASF181
/var/folders/_0/fbrtbm_x4pbf1b72ynjm3v580000gn/T//ccOx4mdW.s:6996   .debug_str:0000000000000cc2 .LASF182
/var/folders/_0/fbrtbm_x4pbf1b72ynjm3v580000gn/T//ccOx4mdW.s:6626   .debug_str:000000000000048a .LASF183
/var/folders/_0/fbrtbm_x4pbf1b72ynjm3v580000gn/T//ccOx4mdW.s:7068   .debug_str:0000000000000e11 .LASF184
/var/folders/_0/fbrtbm_x4pbf1b72ynjm3v580000gn/T//ccOx4mdW.s:6720   .debug_str:00000000000006ab .LASF185
/var/folders/_0/fbrtbm_x4pbf1b72ynjm3v580000gn/T//ccOx4mdW.s:6574   .debug_str:0000000000000364 .LASF186
/var/folders/_0/fbrtbm_x4pbf1b72ynjm3v580000gn/T//ccOx4mdW.s:6562   .debug_str:000000000000030e .LASF187
/var/folders/_0/fbrtbm_x4pbf1b72ynjm3v580000gn/T//ccOx4mdW.s:6672   .debug_str:000000000000059c .LASF188
/var/folders/_0/fbrtbm_x4pbf1b72ynjm3v580000gn/T//ccOx4mdW.s:6690   .debug_str:00000000000005ff .LASF189
/var/folders/_0/fbrtbm_x4pbf1b72ynjm3v580000gn/T//ccOx4mdW.s:6916   .debug_str:0000000000000ac7 .LASF190
/var/folders/_0/fbrtbm_x4pbf1b72ynjm3v580000gn/T//ccOx4mdW.s:7042   .debug_str:0000000000000d99 .LASF191
/var/folders/_0/fbrtbm_x4pbf1b72ynjm3v580000gn/T//ccOx4mdW.s:6748   .debug_str:0000000000000729 .LASF192
/var/folders/_0/fbrtbm_x4pbf1b72ynjm3v580000gn/T//ccOx4mdW.s:6522   .debug_str:00000000000001ca .LASF193
/var/folders/_0/fbrtbm_x4pbf1b72ynjm3v580000gn/T//ccOx4mdW.s:6890   .debug_str:0000000000000a2a .LASF194
/var/folders/_0/fbrtbm_x4pbf1b72ynjm3v580000gn/T//ccOx4mdW.s:6900   .debug_str:0000000000000a60 .LASF195
/var/folders/_0/fbrtbm_x4pbf1b72ynjm3v580000gn/T//ccOx4mdW.s:6992   .debug_str:0000000000000cad .LASF196
/var/folders/_0/fbrtbm_x4pbf1b72ynjm3v580000gn/T//ccOx4mdW.s:7024   .debug_str:0000000000000d42 .LASF197
/var/folders/_0/fbrtbm_x4pbf1b72ynjm3v580000gn/T//ccOx4mdW.s:7034   .debug_str:0000000000000d73 .LASF198
/var/folders/_0/fbrtbm_x4pbf1b72ynjm3v580000gn/T//ccOx4mdW.s:7048   .debug_str:0000000000000dbe .LASF199
/var/folders/_0/fbrtbm_x4pbf1b72ynjm3v580000gn/T//ccOx4mdW.s:6884   .debug_str:0000000000000a02 .LASF200
/var/folders/_0/fbrtbm_x4pbf1b72ynjm3v580000gn/T//ccOx4mdW.s:6918   .debug_str:0000000000000adb .LASF201
/var/folders/_0/fbrtbm_x4pbf1b72ynjm3v580000gn/T//ccOx4mdW.s:7108   .debug_str:0000000000000ed1 .LASF202
/var/folders/_0/fbrtbm_x4pbf1b72ynjm3v580000gn/T//ccOx4mdW.s:6564   .debug_str:0000000000000316 .LASF203
/var/folders/_0/fbrtbm_x4pbf1b72ynjm3v580000gn/T//ccOx4mdW.s:7056   .debug_str:0000000000000ddd .LASF204
GAS LISTING /var/folders/_0/fbrtbm_x4pbf1b72ynjm3v580000gn/T//ccOx4mdW.s 			page 26


/var/folders/_0/fbrtbm_x4pbf1b72ynjm3v580000gn/T//ccOx4mdW.s:7170   .debug_str:0000000000001038 .LASF205
/var/folders/_0/fbrtbm_x4pbf1b72ynjm3v580000gn/T//ccOx4mdW.s:6978   .debug_str:0000000000000c5e .LASF206
/var/folders/_0/fbrtbm_x4pbf1b72ynjm3v580000gn/T//ccOx4mdW.s:6462   .debug_str:000000000000005b .LASF207
/var/folders/_0/fbrtbm_x4pbf1b72ynjm3v580000gn/T//ccOx4mdW.s:6582   .debug_str:000000000000038a .LASF208
/var/folders/_0/fbrtbm_x4pbf1b72ynjm3v580000gn/T//ccOx4mdW.s:6980   .debug_str:0000000000000c66 .LASF209
/var/folders/_0/fbrtbm_x4pbf1b72ynjm3v580000gn/T//ccOx4mdW.s:6942   .debug_str:0000000000000b4c .LASF210
/var/folders/_0/fbrtbm_x4pbf1b72ynjm3v580000gn/T//ccOx4mdW.s:6468   .debug_str:0000000000000080 .LASF211
/var/folders/_0/fbrtbm_x4pbf1b72ynjm3v580000gn/T//ccOx4mdW.s:7044   .debug_str:0000000000000da8 .LASF212
/var/folders/_0/fbrtbm_x4pbf1b72ynjm3v580000gn/T//ccOx4mdW.s:7150   .debug_str:0000000000000fba .LASF213
/var/folders/_0/fbrtbm_x4pbf1b72ynjm3v580000gn/T//ccOx4mdW.s:6798   .debug_str:0000000000000854 .LASF214
/var/folders/_0/fbrtbm_x4pbf1b72ynjm3v580000gn/T//ccOx4mdW.s:7032   .debug_str:0000000000000d6a .LASF215
/var/folders/_0/fbrtbm_x4pbf1b72ynjm3v580000gn/T//ccOx4mdW.s:6820   .debug_str:00000000000008c5 .LASF216
/var/folders/_0/fbrtbm_x4pbf1b72ynjm3v580000gn/T//ccOx4mdW.s:7060   .debug_str:0000000000000dea .LASF217
/var/folders/_0/fbrtbm_x4pbf1b72ynjm3v580000gn/T//ccOx4mdW.s:6826   .debug_str:00000000000008de .LASF218
/var/folders/_0/fbrtbm_x4pbf1b72ynjm3v580000gn/T//ccOx4mdW.s:6882   .debug_str:00000000000009fc .LASF219
/var/folders/_0/fbrtbm_x4pbf1b72ynjm3v580000gn/T//ccOx4mdW.s:6740   .debug_str:0000000000000706 .LASF220
/var/folders/_0/fbrtbm_x4pbf1b72ynjm3v580000gn/T//ccOx4mdW.s:6502   .debug_str:000000000000014c .LASF221
/var/folders/_0/fbrtbm_x4pbf1b72ynjm3v580000gn/T//ccOx4mdW.s:6508   .debug_str:0000000000000163 .LASF222
/var/folders/_0/fbrtbm_x4pbf1b72ynjm3v580000gn/T//ccOx4mdW.s:7220   .debug_str:000000000000113d .LASF223
/var/folders/_0/fbrtbm_x4pbf1b72ynjm3v580000gn/T//ccOx4mdW.s:7180   .debug_str:0000000000001069 .LASF224
/var/folders/_0/fbrtbm_x4pbf1b72ynjm3v580000gn/T//ccOx4mdW.s:6758   .debug_str:000000000000075d .LASF225
/var/folders/_0/fbrtbm_x4pbf1b72ynjm3v580000gn/T//ccOx4mdW.s:6622   .debug_str:0000000000000465 .LASF226
/var/folders/_0/fbrtbm_x4pbf1b72ynjm3v580000gn/T//ccOx4mdW.s:7112   .debug_str:0000000000000ee5 .LASF227
/var/folders/_0/fbrtbm_x4pbf1b72ynjm3v580000gn/T//ccOx4mdW.s:6952   .debug_str:0000000000000ba4 .LASF228
/var/folders/_0/fbrtbm_x4pbf1b72ynjm3v580000gn/T//ccOx4mdW.s:6956   .debug_str:0000000000000bba .LASF229
/var/folders/_0/fbrtbm_x4pbf1b72ynjm3v580000gn/T//ccOx4mdW.s:7208   .debug_str:00000000000010f7 .LASF230
/var/folders/_0/fbrtbm_x4pbf1b72ynjm3v580000gn/T//ccOx4mdW.s:6580   .debug_str:000000000000037c .LASF231
/var/folders/_0/fbrtbm_x4pbf1b72ynjm3v580000gn/T//ccOx4mdW.s:6524   .debug_str:00000000000001d1 .LASF232
/var/folders/_0/fbrtbm_x4pbf1b72ynjm3v580000gn/T//ccOx4mdW.s:7000   .debug_str:0000000000000cd3 .LASF233
/var/folders/_0/fbrtbm_x4pbf1b72ynjm3v580000gn/T//ccOx4mdW.s:7106   .debug_str:0000000000000ec8 .LASF234
/var/folders/_0/fbrtbm_x4pbf1b72ynjm3v580000gn/T//ccOx4mdW.s:7134   .debug_str:0000000000000f43 .LASF235
/var/folders/_0/fbrtbm_x4pbf1b72ynjm3v580000gn/T//ccOx4mdW.s:6938   .debug_str:0000000000000b3a .LASF236
/var/folders/_0/fbrtbm_x4pbf1b72ynjm3v580000gn/T//ccOx4mdW.s:7128   .debug_str:0000000000000f30 .LASF237
/var/folders/_0/fbrtbm_x4pbf1b72ynjm3v580000gn/T//ccOx4mdW.s:6694   .debug_str:0000000000000623 .LASF238
/var/folders/_0/fbrtbm_x4pbf1b72ynjm3v580000gn/T//ccOx4mdW.s:7130   .debug_str:0000000000000f35 .LASF239
/var/folders/_0/fbrtbm_x4pbf1b72ynjm3v580000gn/T//ccOx4mdW.s:7030   .debug_str:0000000000000d64 .LASF240
/var/folders/_0/fbrtbm_x4pbf1b72ynjm3v580000gn/T//ccOx4mdW.s:6602   .debug_str:00000000000003ed .LASF241
/var/folders/_0/fbrtbm_x4pbf1b72ynjm3v580000gn/T//ccOx4mdW.s:6784   .debug_str:000000000000080b .LASF242
/var/folders/_0/fbrtbm_x4pbf1b72ynjm3v580000gn/T//ccOx4mdW.s:6936   .debug_str:0000000000000b33 .LASF243
/var/folders/_0/fbrtbm_x4pbf1b72ynjm3v580000gn/T//ccOx4mdW.s:6576   .debug_str:000000000000036d .LASF244
/var/folders/_0/fbrtbm_x4pbf1b72ynjm3v580000gn/T//ccOx4mdW.s:7124   .debug_str:0000000000000f22 .LASF245
/var/folders/_0/fbrtbm_x4pbf1b72ynjm3v580000gn/T//ccOx4mdW.s:6736   .debug_str:00000000000006f6 .LASF246
/var/folders/_0/fbrtbm_x4pbf1b72ynjm3v580000gn/T//ccOx4mdW.s:6478   .debug_str:00000000000000a9 .LASF247
/var/folders/_0/fbrtbm_x4pbf1b72ynjm3v580000gn/T//ccOx4mdW.s:6482   .debug_str:00000000000000d7 .LASF248
/var/folders/_0/fbrtbm_x4pbf1b72ynjm3v580000gn/T//ccOx4mdW.s:6974   .debug_str:0000000000000c4a .LASF249
/var/folders/_0/fbrtbm_x4pbf1b72ynjm3v580000gn/T//ccOx4mdW.s:6696   .debug_str:0000000000000628 .LASF250
/var/folders/_0/fbrtbm_x4pbf1b72ynjm3v580000gn/T//ccOx4mdW.s:6922   .debug_str:0000000000000aeb .LASF251
/var/folders/_0/fbrtbm_x4pbf1b72ynjm3v580000gn/T//ccOx4mdW.s:6506   .debug_str:000000000000015d .LASF252
/var/folders/_0/fbrtbm_x4pbf1b72ynjm3v580000gn/T//ccOx4mdW.s:7010   .debug_str:0000000000000d00 .LASF253
/var/folders/_0/fbrtbm_x4pbf1b72ynjm3v580000gn/T//ccOx4mdW.s:6752   .debug_str:0000000000000742 .LASF254
/var/folders/_0/fbrtbm_x4pbf1b72ynjm3v580000gn/T//ccOx4mdW.s:7064   .debug_str:0000000000000df8 .LASF255
/var/folders/_0/fbrtbm_x4pbf1b72ynjm3v580000gn/T//ccOx4mdW.s:6526   .debug_str:00000000000001d9 .LASF256
/var/folders/_0/fbrtbm_x4pbf1b72ynjm3v580000gn/T//ccOx4mdW.s:6928   .debug_str:0000000000000b07 .LASF257
/var/folders/_0/fbrtbm_x4pbf1b72ynjm3v580000gn/T//ccOx4mdW.s:6788   .debug_str:000000000000081e .LASF258
/var/folders/_0/fbrtbm_x4pbf1b72ynjm3v580000gn/T//ccOx4mdW.s:6538   .debug_str:0000000000000287 .LASF259
/var/folders/_0/fbrtbm_x4pbf1b72ynjm3v580000gn/T//ccOx4mdW.s:6806   .debug_str:0000000000000880 .LASF260
/var/folders/_0/fbrtbm_x4pbf1b72ynjm3v580000gn/T//ccOx4mdW.s:6710   .debug_str:0000000000000671 .LASF261
GAS LISTING /var/folders/_0/fbrtbm_x4pbf1b72ynjm3v580000gn/T//ccOx4mdW.s 			page 27


/var/folders/_0/fbrtbm_x4pbf1b72ynjm3v580000gn/T//ccOx4mdW.s:7006   .debug_str:0000000000000cec .LASF262
/var/folders/_0/fbrtbm_x4pbf1b72ynjm3v580000gn/T//ccOx4mdW.s:6924   .debug_str:0000000000000af1 .LASF263
/var/folders/_0/fbrtbm_x4pbf1b72ynjm3v580000gn/T//ccOx4mdW.s:7126   .debug_str:0000000000000f2b .LASF264
/var/folders/_0/fbrtbm_x4pbf1b72ynjm3v580000gn/T//ccOx4mdW.s:6840   .debug_str:0000000000000921 .LASF265
/var/folders/_0/fbrtbm_x4pbf1b72ynjm3v580000gn/T//ccOx4mdW.s:7210   .debug_str:0000000000001102 .LASF266
/var/folders/_0/fbrtbm_x4pbf1b72ynjm3v580000gn/T//ccOx4mdW.s:7148   .debug_str:0000000000000fb2 .LASF267
/var/folders/_0/fbrtbm_x4pbf1b72ynjm3v580000gn/T//ccOx4mdW.s:6786   .debug_str:0000000000000813 .LASF268
/var/folders/_0/fbrtbm_x4pbf1b72ynjm3v580000gn/T//ccOx4mdW.s:6830   .debug_str:00000000000008ee .LASF269
/var/folders/_0/fbrtbm_x4pbf1b72ynjm3v580000gn/T//ccOx4mdW.s:7158   .debug_str:0000000000000fe7 .LASF270
/var/folders/_0/fbrtbm_x4pbf1b72ynjm3v580000gn/T//ccOx4mdW.s:6600   .debug_str:00000000000003e3 .LASF271
/var/folders/_0/fbrtbm_x4pbf1b72ynjm3v580000gn/T//ccOx4mdW.s:6774   .debug_str:00000000000007c0 .LASF272
/var/folders/_0/fbrtbm_x4pbf1b72ynjm3v580000gn/T//ccOx4mdW.s:6874   .debug_str:00000000000009d8 .LASF273
/var/folders/_0/fbrtbm_x4pbf1b72ynjm3v580000gn/T//ccOx4mdW.s:6492   .debug_str:000000000000010f .LASF274
/var/folders/_0/fbrtbm_x4pbf1b72ynjm3v580000gn/T//ccOx4mdW.s:6756   .debug_str:0000000000000755 .LASF275
/var/folders/_0/fbrtbm_x4pbf1b72ynjm3v580000gn/T//ccOx4mdW.s:6920   .debug_str:0000000000000ae6 .LASF276
/var/folders/_0/fbrtbm_x4pbf1b72ynjm3v580000gn/T//ccOx4mdW.s:6832   .debug_str:00000000000008f8 .LASF277
/var/folders/_0/fbrtbm_x4pbf1b72ynjm3v580000gn/T//ccOx4mdW.s:6746   .debug_str:000000000000071f .LASF278
/var/folders/_0/fbrtbm_x4pbf1b72ynjm3v580000gn/T//ccOx4mdW.s:6854   .debug_str:000000000000096c .LASF279
/var/folders/_0/fbrtbm_x4pbf1b72ynjm3v580000gn/T//ccOx4mdW.s:6474   .debug_str:000000000000009c .LASF280
/var/folders/_0/fbrtbm_x4pbf1b72ynjm3v580000gn/T//ccOx4mdW.s:6688   .debug_str:00000000000005fa .LASF281
/var/folders/_0/fbrtbm_x4pbf1b72ynjm3v580000gn/T//ccOx4mdW.s:7036   .debug_str:0000000000000d7e .LASF282
/var/folders/_0/fbrtbm_x4pbf1b72ynjm3v580000gn/T//ccOx4mdW.s:6880   .debug_str:00000000000009f6 .LASF283
/var/folders/_0/fbrtbm_x4pbf1b72ynjm3v580000gn/T//ccOx4mdW.s:6848   .debug_str:000000000000094e .LASF284
/var/folders/_0/fbrtbm_x4pbf1b72ynjm3v580000gn/T//ccOx4mdW.s:6876   .debug_str:00000000000009e2 .LASF285
/var/folders/_0/fbrtbm_x4pbf1b72ynjm3v580000gn/T//ccOx4mdW.s:7004   .debug_str:0000000000000ce4 .LASF286
/var/folders/_0/fbrtbm_x4pbf1b72ynjm3v580000gn/T//ccOx4mdW.s:6970   .debug_str:0000000000000c39 .LASF287
/var/folders/_0/fbrtbm_x4pbf1b72ynjm3v580000gn/T//ccOx4mdW.s:6536   .debug_str:0000000000000281 .LASF288
/var/folders/_0/fbrtbm_x4pbf1b72ynjm3v580000gn/T//ccOx4mdW.s:7172   .debug_str:000000000000103f .LASF289
/var/folders/_0/fbrtbm_x4pbf1b72ynjm3v580000gn/T//ccOx4mdW.s:6634   .debug_str:00000000000004b6 .LASF290
/var/folders/_0/fbrtbm_x4pbf1b72ynjm3v580000gn/T//ccOx4mdW.s:7022   .debug_str:0000000000000d35 .LASF291
/var/folders/_0/fbrtbm_x4pbf1b72ynjm3v580000gn/T//ccOx4mdW.s:6490   .debug_str:0000000000000102 .LASF292
/var/folders/_0/fbrtbm_x4pbf1b72ynjm3v580000gn/T//ccOx4mdW.s:6612   .debug_str:0000000000000437 .LASF293
/var/folders/_0/fbrtbm_x4pbf1b72ynjm3v580000gn/T//ccOx4mdW.s:6868   .debug_str:00000000000009b5 .LASF294
/var/folders/_0/fbrtbm_x4pbf1b72ynjm3v580000gn/T//ccOx4mdW.s:6932   .debug_str:0000000000000b1f .LASF295
/var/folders/_0/fbrtbm_x4pbf1b72ynjm3v580000gn/T//ccOx4mdW.s:7052   .debug_str:0000000000000dd3 .LASF296
/var/folders/_0/fbrtbm_x4pbf1b72ynjm3v580000gn/T//ccOx4mdW.s:7092   .debug_str:0000000000000e7c .LASF297
/var/folders/_0/fbrtbm_x4pbf1b72ynjm3v580000gn/T//ccOx4mdW.s:6984   .debug_str:0000000000000c77 .LASF298
/var/folders/_0/fbrtbm_x4pbf1b72ynjm3v580000gn/T//ccOx4mdW.s:6926   .debug_str:0000000000000af9 .LASF299
/var/folders/_0/fbrtbm_x4pbf1b72ynjm3v580000gn/T//ccOx4mdW.s:6512   .debug_str:0000000000000174 .LASF300
/var/folders/_0/fbrtbm_x4pbf1b72ynjm3v580000gn/T//ccOx4mdW.s:6812   .debug_str:000000000000089e .LASF301
/var/folders/_0/fbrtbm_x4pbf1b72ynjm3v580000gn/T//ccOx4mdW.s:7222   .debug_str:0000000000001146 .LASF302
/var/folders/_0/fbrtbm_x4pbf1b72ynjm3v580000gn/T//ccOx4mdW.s:6592   .debug_str:00000000000003ba .LASF303
/var/folders/_0/fbrtbm_x4pbf1b72ynjm3v580000gn/T//ccOx4mdW.s:7026   .debug_str:0000000000000d4c .LASF304
/var/folders/_0/fbrtbm_x4pbf1b72ynjm3v580000gn/T//ccOx4mdW.s:7190   .debug_str:000000000000109e .LASF305
/var/folders/_0/fbrtbm_x4pbf1b72ynjm3v580000gn/T//ccOx4mdW.s:6910   .debug_str:0000000000000aa7 .LASF306
/var/folders/_0/fbrtbm_x4pbf1b72ynjm3v580000gn/T//ccOx4mdW.s:6892   .debug_str:0000000000000a33 .LASF307
/var/folders/_0/fbrtbm_x4pbf1b72ynjm3v580000gn/T//ccOx4mdW.s:6698   .debug_str:000000000000062f .LASF308
/var/folders/_0/fbrtbm_x4pbf1b72ynjm3v580000gn/T//ccOx4mdW.s:7138   .debug_str:0000000000000f58 .LASF309
/var/folders/_0/fbrtbm_x4pbf1b72ynjm3v580000gn/T//ccOx4mdW.s:6858   .debug_str:0000000000000981 .LASF310
/var/folders/_0/fbrtbm_x4pbf1b72ynjm3v580000gn/T//ccOx4mdW.s:6500   .debug_str:0000000000000144 .LASF311
/var/folders/_0/fbrtbm_x4pbf1b72ynjm3v580000gn/T//ccOx4mdW.s:6466   .debug_str:0000000000000075 .LASF385
/var/folders/_0/fbrtbm_x4pbf1b72ynjm3v580000gn/T//ccOx4mdW.s:6596   .debug_str:00000000000003d1 .LASF312
/var/folders/_0/fbrtbm_x4pbf1b72ynjm3v580000gn/T//ccOx4mdW.s:6946   .debug_str:0000000000000b77 .LASF313
/var/folders/_0/fbrtbm_x4pbf1b72ynjm3v580000gn/T//ccOx4mdW.s:6670   .debug_str:0000000000000589 .LASF314
/var/folders/_0/fbrtbm_x4pbf1b72ynjm3v580000gn/T//ccOx4mdW.s:7212   .debug_str:000000000000111b .LASF315
/var/folders/_0/fbrtbm_x4pbf1b72ynjm3v580000gn/T//ccOx4mdW.s:7140   .debug_str:0000000000000f5f .LASF316
/var/folders/_0/fbrtbm_x4pbf1b72ynjm3v580000gn/T//ccOx4mdW.s:6642   .debug_str:00000000000004fc .LASF317
GAS LISTING /var/folders/_0/fbrtbm_x4pbf1b72ynjm3v580000gn/T//ccOx4mdW.s 			page 28


/var/folders/_0/fbrtbm_x4pbf1b72ynjm3v580000gn/T//ccOx4mdW.s:6664   .debug_str:000000000000056c .LASF318
/var/folders/_0/fbrtbm_x4pbf1b72ynjm3v580000gn/T//ccOx4mdW.s:6516   .debug_str:0000000000000184 .LASF319
/var/folders/_0/fbrtbm_x4pbf1b72ynjm3v580000gn/T//ccOx4mdW.s:6944   .debug_str:0000000000000b54 .LASF320
/var/folders/_0/fbrtbm_x4pbf1b72ynjm3v580000gn/T//ccOx4mdW.s:7146   .debug_str:0000000000000fa1 .LASF321
/var/folders/_0/fbrtbm_x4pbf1b72ynjm3v580000gn/T//ccOx4mdW.s:6706   .debug_str:0000000000000658 .LASF322
/var/folders/_0/fbrtbm_x4pbf1b72ynjm3v580000gn/T//ccOx4mdW.s:6640   .debug_str:00000000000004d7 .LASF323
/var/folders/_0/fbrtbm_x4pbf1b72ynjm3v580000gn/T//ccOx4mdW.s:6610   .debug_str:0000000000000420 .LASF324
/var/folders/_0/fbrtbm_x4pbf1b72ynjm3v580000gn/T//ccOx4mdW.s:7122   .debug_str:0000000000000f0e .LASF325
/var/folders/_0/fbrtbm_x4pbf1b72ynjm3v580000gn/T//ccOx4mdW.s:6624   .debug_str:000000000000046e .LASF326
/var/folders/_0/fbrtbm_x4pbf1b72ynjm3v580000gn/T//ccOx4mdW.s:6762   .debug_str:0000000000000772 .LASF327
/var/folders/_0/fbrtbm_x4pbf1b72ynjm3v580000gn/T//ccOx4mdW.s:6540   .debug_str:000000000000028e .LASF328
/var/folders/_0/fbrtbm_x4pbf1b72ynjm3v580000gn/T//ccOx4mdW.s:6496   .debug_str:0000000000000120 .LASF329
/var/folders/_0/fbrtbm_x4pbf1b72ynjm3v580000gn/T//ccOx4mdW.s:6682   .debug_str:00000000000005cd .LASF330
/var/folders/_0/fbrtbm_x4pbf1b72ynjm3v580000gn/T//ccOx4mdW.s:6886   .debug_str:0000000000000a0a .LASF331
/var/folders/_0/fbrtbm_x4pbf1b72ynjm3v580000gn/T//ccOx4mdW.s:6460   .debug_str:0000000000000042 .LASF332
/var/folders/_0/fbrtbm_x4pbf1b72ynjm3v580000gn/T//ccOx4mdW.s:6480   .debug_str:00000000000000af .LASF333
/var/folders/_0/fbrtbm_x4pbf1b72ynjm3v580000gn/T//ccOx4mdW.s:7136   .debug_str:0000000000000f4b .LASF334
/var/folders/_0/fbrtbm_x4pbf1b72ynjm3v580000gn/T//ccOx4mdW.s:7142   .debug_str:0000000000000f85 .LASF335
/var/folders/_0/fbrtbm_x4pbf1b72ynjm3v580000gn/T//ccOx4mdW.s:6608   .debug_str:0000000000000407 .LASF336
/var/folders/_0/fbrtbm_x4pbf1b72ynjm3v580000gn/T//ccOx4mdW.s:6484   .debug_str:00000000000000de .LASF337
/var/folders/_0/fbrtbm_x4pbf1b72ynjm3v580000gn/T//ccOx4mdW.s:6802   .debug_str:000000000000086c .LASF338
/var/folders/_0/fbrtbm_x4pbf1b72ynjm3v580000gn/T//ccOx4mdW.s:6872   .debug_str:00000000000009cc .LASF339
/var/folders/_0/fbrtbm_x4pbf1b72ynjm3v580000gn/T//ccOx4mdW.s:6518   .debug_str:00000000000001b2 .LASF340
/var/folders/_0/fbrtbm_x4pbf1b72ynjm3v580000gn/T//ccOx4mdW.s:6766   .debug_str:0000000000000793 .LASF341
/var/folders/_0/fbrtbm_x4pbf1b72ynjm3v580000gn/T//ccOx4mdW.s:6852   .debug_str:0000000000000960 .LASF342
/var/folders/_0/fbrtbm_x4pbf1b72ynjm3v580000gn/T//ccOx4mdW.s:6860   .debug_str:000000000000098a .LASF343
/var/folders/_0/fbrtbm_x4pbf1b72ynjm3v580000gn/T//ccOx4mdW.s:548    .text.printGo:0000000000000000 .LFB12
/var/folders/_0/fbrtbm_x4pbf1b72ynjm3v580000gn/T//ccOx4mdW.s:582    .text.printGo:0000000000000020 .LFE12
/var/folders/_0/fbrtbm_x4pbf1b72ynjm3v580000gn/T//ccOx4mdW.s:6061   .debug_loc:0000000000000000 .LLST19
/var/folders/_0/fbrtbm_x4pbf1b72ynjm3v580000gn/T//ccOx4mdW.s:564    .text.printGo:0000000000000010 .LVL61
/var/folders/_0/fbrtbm_x4pbf1b72ynjm3v580000gn/T//ccOx4mdW.s:580    .text.printGo:0000000000000020 .LVL62
/var/folders/_0/fbrtbm_x4pbf1b72ynjm3v580000gn/T//ccOx4mdW.s:6804   .debug_str:0000000000000876 .LASF344
/var/folders/_0/fbrtbm_x4pbf1b72ynjm3v580000gn/T//ccOx4mdW.s:507    .text.printStop:0000000000000000 .LFB11
/var/folders/_0/fbrtbm_x4pbf1b72ynjm3v580000gn/T//ccOx4mdW.s:541    .text.printStop:0000000000000024 .LFE11
/var/folders/_0/fbrtbm_x4pbf1b72ynjm3v580000gn/T//ccOx4mdW.s:6079   .debug_loc:000000000000002c .LLST18
/var/folders/_0/fbrtbm_x4pbf1b72ynjm3v580000gn/T//ccOx4mdW.s:523    .text.printStop:0000000000000012 .LVL59
/var/folders/_0/fbrtbm_x4pbf1b72ynjm3v580000gn/T//ccOx4mdW.s:539    .text.printStop:0000000000000024 .LVL60
/var/folders/_0/fbrtbm_x4pbf1b72ynjm3v580000gn/T//ccOx4mdW.s:6534   .debug_str:0000000000000277 .LASF350
/var/folders/_0/fbrtbm_x4pbf1b72ynjm3v580000gn/T//ccOx4mdW.s:7102   .debug_str:0000000000000eb1 .LASF345
/var/folders/_0/fbrtbm_x4pbf1b72ynjm3v580000gn/T//ccOx4mdW.s:6718   .debug_str:000000000000069e .LASF346
/var/folders/_0/fbrtbm_x4pbf1b72ynjm3v580000gn/T//ccOx4mdW.s:7008   .debug_str:0000000000000cf4 .LASF347
/var/folders/_0/fbrtbm_x4pbf1b72ynjm3v580000gn/T//ccOx4mdW.s:7198   .debug_str:00000000000010c4 .LASF348
/var/folders/_0/fbrtbm_x4pbf1b72ynjm3v580000gn/T//ccOx4mdW.s:351    .text.keyPad:0000000000000000 .LFB9
/var/folders/_0/fbrtbm_x4pbf1b72ynjm3v580000gn/T//ccOx4mdW.s:394    .text.keyPad:0000000000000032 .LFE9
/var/folders/_0/fbrtbm_x4pbf1b72ynjm3v580000gn/T//ccOx4mdW.s:6842   .debug_str:000000000000092c .LASF349
/var/folders/_0/fbrtbm_x4pbf1b72ynjm3v580000gn/T//ccOx4mdW.s:6097   .debug_loc:0000000000000058 .LLST10
/var/folders/_0/fbrtbm_x4pbf1b72ynjm3v580000gn/T//ccOx4mdW.s:7058   .debug_str:0000000000000de4 .LASF351
/var/folders/_0/fbrtbm_x4pbf1b72ynjm3v580000gn/T//ccOx4mdW.s:6808   .debug_str:0000000000000887 .LASF352
/var/folders/_0/fbrtbm_x4pbf1b72ynjm3v580000gn/T//ccOx4mdW.s:6618   .debug_str:0000000000000458 .LASF353
/var/folders/_0/fbrtbm_x4pbf1b72ynjm3v580000gn/T//ccOx4mdW.s:20     .text.startup.main:0000000000000000 .LFB7
/var/folders/_0/fbrtbm_x4pbf1b72ynjm3v580000gn/T//ccOx4mdW.s:278    .text.startup.main:00000000000001c6 .LFE7
/var/folders/_0/fbrtbm_x4pbf1b72ynjm3v580000gn/T//ccOx4mdW.s:6115   .debug_loc:0000000000000084 .LLST0
/var/folders/_0/fbrtbm_x4pbf1b72ynjm3v580000gn/T//ccOx4mdW.s:7114   .debug_str:0000000000000eef .LASF354
/var/folders/_0/fbrtbm_x4pbf1b72ynjm3v580000gn/T//ccOx4mdW.s:6546   .debug_str:00000000000002ba .LASF355
/var/folders/_0/fbrtbm_x4pbf1b72ynjm3v580000gn/T//ccOx4mdW.s:6700   .debug_str:0000000000000638 .LASF356
/var/folders/_0/fbrtbm_x4pbf1b72ynjm3v580000gn/T//ccOx4mdW.s:6728   .debug_str:00000000000006cb .LASF357
/var/folders/_0/fbrtbm_x4pbf1b72ynjm3v580000gn/T//ccOx4mdW.s:6760   .debug_str:0000000000000767 .LASF358
GAS LISTING /var/folders/_0/fbrtbm_x4pbf1b72ynjm3v580000gn/T//ccOx4mdW.s 			page 29


/var/folders/_0/fbrtbm_x4pbf1b72ynjm3v580000gn/T//ccOx4mdW.s:6128   .debug_loc:00000000000000a5 .LLST1
/var/folders/_0/fbrtbm_x4pbf1b72ynjm3v580000gn/T//ccOx4mdW.s:6732   .debug_str:00000000000006e2 .LASF359
/var/folders/_0/fbrtbm_x4pbf1b72ynjm3v580000gn/T//ccOx4mdW.s:6560   .debug_str:0000000000000305 .LASF360
/var/folders/_0/fbrtbm_x4pbf1b72ynjm3v580000gn/T//ccOx4mdW.s:6140   .debug_loc:00000000000000c4 .LLST2
/var/folders/_0/fbrtbm_x4pbf1b72ynjm3v580000gn/T//ccOx4mdW.s:6530   .debug_str:00000000000001e8 .LASF361
/var/folders/_0/fbrtbm_x4pbf1b72ynjm3v580000gn/T//ccOx4mdW.s:6161   .debug_loc:00000000000000fd .LLST3
/var/folders/_0/fbrtbm_x4pbf1b72ynjm3v580000gn/T//ccOx4mdW.s:7192   .debug_str:00000000000010af .LASF362
/var/folders/_0/fbrtbm_x4pbf1b72ynjm3v580000gn/T//ccOx4mdW.s:7144   .debug_str:0000000000000f97 .LASF363
/var/folders/_0/fbrtbm_x4pbf1b72ynjm3v580000gn/T//ccOx4mdW.s:7038   .debug_str:0000000000000d85 .LASF364
/var/folders/_0/fbrtbm_x4pbf1b72ynjm3v580000gn/T//ccOx4mdW.s:6177   .debug_loc:0000000000000127 .LLST4
/var/folders/_0/fbrtbm_x4pbf1b72ynjm3v580000gn/T//ccOx4mdW.s:78     .text.startup.main:0000000000000036 .LVL2
/var/folders/_0/fbrtbm_x4pbf1b72ynjm3v580000gn/T//ccOx4mdW.s:86     .text.startup.main:000000000000003e .LVL3
/var/folders/_0/fbrtbm_x4pbf1b72ynjm3v580000gn/T//ccOx4mdW.s:89     .text.startup.main:0000000000000046 .LVL4
/var/folders/_0/fbrtbm_x4pbf1b72ynjm3v580000gn/T//ccOx4mdW.s:92     .text.startup.main:000000000000004e .LVL5
/var/folders/_0/fbrtbm_x4pbf1b72ynjm3v580000gn/T//ccOx4mdW.s:95     .text.startup.main:0000000000000056 .LVL6
/var/folders/_0/fbrtbm_x4pbf1b72ynjm3v580000gn/T//ccOx4mdW.s:98     .text.startup.main:000000000000005e .LVL7
/var/folders/_0/fbrtbm_x4pbf1b72ynjm3v580000gn/T//ccOx4mdW.s:102    .text.startup.main:0000000000000066 .LVL8
/var/folders/_0/fbrtbm_x4pbf1b72ynjm3v580000gn/T//ccOx4mdW.s:107    .text.startup.main:0000000000000072 .LVL9
/var/folders/_0/fbrtbm_x4pbf1b72ynjm3v580000gn/T//ccOx4mdW.s:111    .text.startup.main:000000000000007e .LVL10
/var/folders/_0/fbrtbm_x4pbf1b72ynjm3v580000gn/T//ccOx4mdW.s:126    .text.startup.main:0000000000000096 .LVL12
/var/folders/_0/fbrtbm_x4pbf1b72ynjm3v580000gn/T//ccOx4mdW.s:131    .text.startup.main:00000000000000a0 .LVL13
/var/folders/_0/fbrtbm_x4pbf1b72ynjm3v580000gn/T//ccOx4mdW.s:133    .text.startup.main:00000000000000a8 .LVL14
/var/folders/_0/fbrtbm_x4pbf1b72ynjm3v580000gn/T//ccOx4mdW.s:144    .text.startup.main:00000000000000b6 .LVL15
/var/folders/_0/fbrtbm_x4pbf1b72ynjm3v580000gn/T//ccOx4mdW.s:150    .text.startup.main:00000000000000c0 .LVL16
/var/folders/_0/fbrtbm_x4pbf1b72ynjm3v580000gn/T//ccOx4mdW.s:159    .text.startup.main:00000000000000ce .LVL18
/var/folders/_0/fbrtbm_x4pbf1b72ynjm3v580000gn/T//ccOx4mdW.s:165    .text.startup.main:00000000000000de .LVL19
/var/folders/_0/fbrtbm_x4pbf1b72ynjm3v580000gn/T//ccOx4mdW.s:171    .text.startup.main:00000000000000ee .LVL20
/var/folders/_0/fbrtbm_x4pbf1b72ynjm3v580000gn/T//ccOx4mdW.s:227    .text.startup.main:0000000000000160 .LVL32
/var/folders/_0/fbrtbm_x4pbf1b72ynjm3v580000gn/T//ccOx4mdW.s:232    .text.startup.main:000000000000016c .LVL33
/var/folders/_0/fbrtbm_x4pbf1b72ynjm3v580000gn/T//ccOx4mdW.s:240    .text.startup.main:000000000000017a .LVL34
/var/folders/_0/fbrtbm_x4pbf1b72ynjm3v580000gn/T//ccOx4mdW.s:244    .text.startup.main:0000000000000182 .LVL35
/var/folders/_0/fbrtbm_x4pbf1b72ynjm3v580000gn/T//ccOx4mdW.s:257    .text.startup.main:000000000000019c .LVL37
/var/folders/_0/fbrtbm_x4pbf1b72ynjm3v580000gn/T//ccOx4mdW.s:263    .text.startup.main:00000000000001a8 .LVL38
/var/folders/_0/fbrtbm_x4pbf1b72ynjm3v580000gn/T//ccOx4mdW.s:269    .text.startup.main:00000000000001b4 .LVL39
/var/folders/_0/fbrtbm_x4pbf1b72ynjm3v580000gn/T//ccOx4mdW.s:275    .text.startup.main:00000000000001c4 .LVL40
/var/folders/_0/fbrtbm_x4pbf1b72ynjm3v580000gn/T//ccOx4mdW.s:6888   .debug_str:0000000000000a24 .LASF365
/var/folders/_0/fbrtbm_x4pbf1b72ynjm3v580000gn/T//ccOx4mdW.s:285    .text.blink:0000000000000000 .LFB8
/var/folders/_0/fbrtbm_x4pbf1b72ynjm3v580000gn/T//ccOx4mdW.s:344    .text.blink:0000000000000034 .LFE8
/var/folders/_0/fbrtbm_x4pbf1b72ynjm3v580000gn/T//ccOx4mdW.s:6189   .debug_loc:0000000000000146 .LLST5
/var/folders/_0/fbrtbm_x4pbf1b72ynjm3v580000gn/T//ccOx4mdW.s:6207   .debug_loc:0000000000000172 .LLST6
/var/folders/_0/fbrtbm_x4pbf1b72ynjm3v580000gn/T//ccOx4mdW.s:6225   .debug_loc:000000000000019e .LLST7
/var/folders/_0/fbrtbm_x4pbf1b72ynjm3v580000gn/T//ccOx4mdW.s:302    .text.blink:0000000000000010 .LBB4
/var/folders/_0/fbrtbm_x4pbf1b72ynjm3v580000gn/T//ccOx4mdW.s:6247   .debug_loc:00000000000001d5 .LLST8
/var/folders/_0/fbrtbm_x4pbf1b72ynjm3v580000gn/T//ccOx4mdW.s:6265   .debug_loc:0000000000000201 .LLST9
/var/folders/_0/fbrtbm_x4pbf1b72ynjm3v580000gn/T//ccOx4mdW.s:315    .text.blink:0000000000000022 .LVL45
/var/folders/_0/fbrtbm_x4pbf1b72ynjm3v580000gn/T//ccOx4mdW.s:401    .text.motorStep:0000000000000000 .LFB10
/var/folders/_0/fbrtbm_x4pbf1b72ynjm3v580000gn/T//ccOx4mdW.s:500    .text.motorStep:0000000000000064 .LFE10
/var/folders/_0/fbrtbm_x4pbf1b72ynjm3v580000gn/T//ccOx4mdW.s:6279   .debug_loc:0000000000000222 .LLST11
/var/folders/_0/fbrtbm_x4pbf1b72ynjm3v580000gn/T//ccOx4mdW.s:6302   .debug_loc:000000000000025a .LLST12
/var/folders/_0/fbrtbm_x4pbf1b72ynjm3v580000gn/T//ccOx4mdW.s:6331   .debug_loc:000000000000029f .LLST13
/var/folders/_0/fbrtbm_x4pbf1b72ynjm3v580000gn/T//ccOx4mdW.s:6353   .debug_loc:00000000000002d6 .LLST14
/var/folders/_0/fbrtbm_x4pbf1b72ynjm3v580000gn/T//ccOx4mdW.s:455    .text.motorStep:0000000000000030 .LBB10
/var/folders/_0/fbrtbm_x4pbf1b72ynjm3v580000gn/T//ccOx4mdW.s:483    .text.motorStep:0000000000000054 .LBE10
/var/folders/_0/fbrtbm_x4pbf1b72ynjm3v580000gn/T//ccOx4mdW.s:6375   .debug_loc:000000000000030d .LLST15
/var/folders/_0/fbrtbm_x4pbf1b72ynjm3v580000gn/T//ccOx4mdW.s:6389   .debug_loc:000000000000032e .LLST16
/var/folders/_0/fbrtbm_x4pbf1b72ynjm3v580000gn/T//ccOx4mdW.s:6396   .debug_loc:0000000000000341 .LLST17
/var/folders/_0/fbrtbm_x4pbf1b72ynjm3v580000gn/T//ccOx4mdW.s:459    .text.motorStep:0000000000000038 .LVL56
GAS LISTING /var/folders/_0/fbrtbm_x4pbf1b72ynjm3v580000gn/T//ccOx4mdW.s 			page 30


/var/folders/_0/fbrtbm_x4pbf1b72ynjm3v580000gn/T//ccOx4mdW.s:470    .text.motorStep:0000000000000048 .LVL57
/var/folders/_0/fbrtbm_x4pbf1b72ynjm3v580000gn/T//ccOx4mdW.s:424    .text.motorStep:0000000000000018 .LVL52
/var/folders/_0/fbrtbm_x4pbf1b72ynjm3v580000gn/T//ccOx4mdW.s:6554   .debug_str:00000000000002e5 .LASF366
/var/folders/_0/fbrtbm_x4pbf1b72ynjm3v580000gn/T//ccOx4mdW.s:7132   .debug_str:0000000000000f3c .LASF386
/var/folders/_0/fbrtbm_x4pbf1b72ynjm3v580000gn/T//ccOx4mdW.s:6556   .debug_str:00000000000002ec .LASF387
/var/folders/_0/fbrtbm_x4pbf1b72ynjm3v580000gn/T//ccOx4mdW.s:6578   .debug_str:0000000000000373 .LASF367
/var/folders/_0/fbrtbm_x4pbf1b72ynjm3v580000gn/T//ccOx4mdW.s:6968   .debug_str:0000000000000c32 .LASF368
/var/folders/_0/fbrtbm_x4pbf1b72ynjm3v580000gn/T//ccOx4mdW.s:6708   .debug_str:0000000000000669 .LASF369
/var/folders/_0/fbrtbm_x4pbf1b72ynjm3v580000gn/T//ccOx4mdW.s:6796   .debug_str:000000000000084c .LASF370
/var/folders/_0/fbrtbm_x4pbf1b72ynjm3v580000gn/T//ccOx4mdW.s:6894   .debug_str:0000000000000a44 .LASF371
/var/folders/_0/fbrtbm_x4pbf1b72ynjm3v580000gn/T//ccOx4mdW.s:6568   .debug_str:0000000000000337 .LASF372
/var/folders/_0/fbrtbm_x4pbf1b72ynjm3v580000gn/T//ccOx4mdW.s:7164   .debug_str:0000000000001004 .LASF373
/var/folders/_0/fbrtbm_x4pbf1b72ynjm3v580000gn/T//ccOx4mdW.s:6548   .debug_str:00000000000002c0 .LASF374
/var/folders/_0/fbrtbm_x4pbf1b72ynjm3v580000gn/T//ccOx4mdW.s:6822   .debug_str:00000000000008cd .LASF375
/var/folders/_0/fbrtbm_x4pbf1b72ynjm3v580000gn/T//ccOx4mdW.s:6896   .debug_str:0000000000000a4c .LASF376
/var/folders/_0/fbrtbm_x4pbf1b72ynjm3v580000gn/T//ccOx4mdW.s:6814   .debug_str:00000000000008aa .LASF377
/var/folders/_0/fbrtbm_x4pbf1b72ynjm3v580000gn/T//ccOx4mdW.s:6542   .debug_str:00000000000002a1 .LASF378
/var/folders/_0/fbrtbm_x4pbf1b72ynjm3v580000gn/T//ccOx4mdW.s:7216   .debug_str:0000000000001129 .LASF379
/var/folders/_0/fbrtbm_x4pbf1b72ynjm3v580000gn/T//ccOx4mdW.s:6558   .debug_str:00000000000002fd .LASF380
/var/folders/_0/fbrtbm_x4pbf1b72ynjm3v580000gn/T//ccOx4mdW.s:7182   .debug_str:0000000000001073 .LASF381
/var/folders/_0/fbrtbm_x4pbf1b72ynjm3v580000gn/T//ccOx4mdW.s:554    .text.printGo:0000000000000002 .LCFI8
/var/folders/_0/fbrtbm_x4pbf1b72ynjm3v580000gn/T//ccOx4mdW.s:576    .text.printGo:0000000000000018 .LCFI9
/var/folders/_0/fbrtbm_x4pbf1b72ynjm3v580000gn/T//ccOx4mdW.s:513    .text.printStop:0000000000000002 .LCFI6
/var/folders/_0/fbrtbm_x4pbf1b72ynjm3v580000gn/T//ccOx4mdW.s:535    .text.printStop:000000000000001c .LCFI7
/var/folders/_0/fbrtbm_x4pbf1b72ynjm3v580000gn/T//ccOx4mdW.s:354    .text.keyPad:0000000000000000 .LVL48
/var/folders/_0/fbrtbm_x4pbf1b72ynjm3v580000gn/T//ccOx4mdW.s:366    .text.keyPad:0000000000000014 .LVL49
/var/folders/_0/fbrtbm_x4pbf1b72ynjm3v580000gn/T//ccOx4mdW.s:372    .text.keyPad:0000000000000018 .LVL50
/var/folders/_0/fbrtbm_x4pbf1b72ynjm3v580000gn/T//ccOx4mdW.s:29     .text.startup.main:0000000000000002 .LCFI0
/var/folders/_0/fbrtbm_x4pbf1b72ynjm3v580000gn/T//ccOx4mdW.s:74     .text.startup.main:000000000000002e .LVL1
/var/folders/_0/fbrtbm_x4pbf1b72ynjm3v580000gn/T//ccOx4mdW.s:120    .text.startup.main:000000000000008e .LVL11
/var/folders/_0/fbrtbm_x4pbf1b72ynjm3v580000gn/T//ccOx4mdW.s:250    .text.startup.main:0000000000000188 .LVL36
/var/folders/_0/fbrtbm_x4pbf1b72ynjm3v580000gn/T//ccOx4mdW.s:207    .text.startup.main:0000000000000140 .LVL28
/var/folders/_0/fbrtbm_x4pbf1b72ynjm3v580000gn/T//ccOx4mdW.s:211    .text.startup.main:0000000000000148 .LVL29
/var/folders/_0/fbrtbm_x4pbf1b72ynjm3v580000gn/T//ccOx4mdW.s:214    .text.startup.main:000000000000014c .LVL30
/var/folders/_0/fbrtbm_x4pbf1b72ynjm3v580000gn/T//ccOx4mdW.s:220    .text.startup.main:0000000000000152 .LVL31
/var/folders/_0/fbrtbm_x4pbf1b72ynjm3v580000gn/T//ccOx4mdW.s:155    .text.startup.main:00000000000000c4 .LVL17
/var/folders/_0/fbrtbm_x4pbf1b72ynjm3v580000gn/T//ccOx4mdW.s:296    .text.blink:000000000000000c .LCFI1
/var/folders/_0/fbrtbm_x4pbf1b72ynjm3v580000gn/T//ccOx4mdW.s:337    .text.blink:0000000000000030 .LCFI2
/var/folders/_0/fbrtbm_x4pbf1b72ynjm3v580000gn/T//ccOx4mdW.s:288    .text.blink:0000000000000000 .LVL41
/var/folders/_0/fbrtbm_x4pbf1b72ynjm3v580000gn/T//ccOx4mdW.s:313    .text.blink:000000000000001a .LVL44
/var/folders/_0/fbrtbm_x4pbf1b72ynjm3v580000gn/T//ccOx4mdW.s:340    .text.blink:0000000000000032 .LVL47
/var/folders/_0/fbrtbm_x4pbf1b72ynjm3v580000gn/T//ccOx4mdW.s:311    .text.blink:0000000000000018 .LVL43
/var/folders/_0/fbrtbm_x4pbf1b72ynjm3v580000gn/T//ccOx4mdW.s:335    .text.blink:000000000000002e .LVL46
/var/folders/_0/fbrtbm_x4pbf1b72ynjm3v580000gn/T//ccOx4mdW.s:307    .text.blink:0000000000000016 .LVL42
/var/folders/_0/fbrtbm_x4pbf1b72ynjm3v580000gn/T//ccOx4mdW.s:410    .text.motorStep:0000000000000004 .LCFI3
/var/folders/_0/fbrtbm_x4pbf1b72ynjm3v580000gn/T//ccOx4mdW.s:441    .text.motorStep:0000000000000026 .LCFI4
/var/folders/_0/fbrtbm_x4pbf1b72ynjm3v580000gn/T//ccOx4mdW.s:446    .text.motorStep:0000000000000028 .LCFI5
/var/folders/_0/fbrtbm_x4pbf1b72ynjm3v580000gn/T//ccOx4mdW.s:404    .text.motorStep:0000000000000000 .LVL51
/var/folders/_0/fbrtbm_x4pbf1b72ynjm3v580000gn/T//ccOx4mdW.s:444    .text.motorStep:0000000000000028 .LVL54
/var/folders/_0/fbrtbm_x4pbf1b72ynjm3v580000gn/T//ccOx4mdW.s:480    .text.motorStep:0000000000000054 .LVL58
/var/folders/_0/fbrtbm_x4pbf1b72ynjm3v580000gn/T//ccOx4mdW.s:439    .text.motorStep:0000000000000024 .LVL53
/var/folders/_0/fbrtbm_x4pbf1b72ynjm3v580000gn/T//ccOx4mdW.s:454    .text.motorStep:0000000000000030 .LVL55
/var/folders/_0/fbrtbm_x4pbf1b72ynjm3v580000gn/T//ccOx4mdW.s:632    .debug_info:0000000000000000 .Ldebug_info0
/var/folders/_0/fbrtbm_x4pbf1b72ynjm3v580000gn/T//ccOx4mdW.s:320    .text.blink:0000000000000024 .LBE4
/var/folders/_0/fbrtbm_x4pbf1b72ynjm3v580000gn/T//ccOx4mdW.s:324    .text.blink:0000000000000026 .LBB7
/var/folders/_0/fbrtbm_x4pbf1b72ynjm3v580000gn/T//ccOx4mdW.s:331    .text.blink:000000000000002c .LBE7

GAS LISTING /var/folders/_0/fbrtbm_x4pbf1b72ynjm3v580000gn/T//ccOx4mdW.s 			page 31


UNDEFINED SYMBOLS
__floatsisf
__extendsfdf2
__muldf3
__adddf3
__truncdfsf2
__fixsfsi
memcpy
initStep
t5omsi
colinit
l88init
keyinit
cs1237_setup_pins
cs1237_sample_rate_and_gain
cs1237_configure
t5expq
colset
l88row
cs1237_data_ready
cs1237_read
l88mem
keyscan
execStep
