GAS LISTING /var/folders/_0/fbrtbm_x4pbf1b72ynjm3v580000gn/T//ccGI2C5q.s 			page 1


   1              		.file	"stepperUP.c"
   2              		.option nopic
   3              		.attribute arch, "rv32i2p0_m2p0_a2p0_c2p0"
   4              		.attribute unaligned_access, 0
   5              		.attribute stack_align, 16
   6              		.text
   7              	.Ltext0:
   8              		.cfi_sections	.debug_frame
   9              		.section	.text.initStep,"ax",@progbits
  10              		.align	1
  11              		.globl	initStep
  13              	initStep:
  14              	.LFB2:
  15              		.file 1 "stepperUP.c"
   1:stepperUP.c   ****     #include "stepperUP.h"
   2:stepperUP.c   ****     #include "gd32vf103.h"
   3:stepperUP.c   **** 
   4:stepperUP.c   ****     // Red      Common +VCC
   5:stepperUP.c   ****     // Pink     North coil, Yellow  West coil
   6:stepperUP.c   ****     // Orange   South coil, Blue    East coil
   7:stepperUP.c   **** 
   8:stepperUP.c   ****     void initStep(void){
  16              		.loc 1 8 24
  17              		.cfi_startproc
   9:stepperUP.c   ****        rcu_periph_clock_enable(RCU_GPIOA);
  18              		.loc 1 9 8
   8:stepperUP.c   ****        rcu_periph_clock_enable(RCU_GPIOA);
  19              		.loc 1 8 24 is_stmt 0
  20 0000 4111     		addi	sp,sp,-16
  21              	.LCFI0:
  22              		.cfi_def_cfa_offset 16
  23              		.loc 1 9 8
  24 0002 13052060 		li	a0,1538
   8:stepperUP.c   ****        rcu_periph_clock_enable(RCU_GPIOA);
  25              		.loc 1 8 24
  26 0006 06C6     		sw	ra,12(sp)
  27              		.cfi_offset 1, -4
  28              		.loc 1 9 8
  29 0008 97000000 		call	rcu_periph_clock_enable
  29      E7800000 
  30              	.LVL0:
  10:stepperUP.c   ****        gpio_init(GPIOA, GPIO_MODE_OUT_PP, GPIO_OSPEED_50MHZ, 
  31              		.loc 1 10 8 is_stmt 1
  11:stepperUP.c   ****                  GPIO_PIN_0 | GPIO_PIN_1 | GPIO_PIN_2 | GPIO_PIN_3);
  12:stepperUP.c   ****     }
  32              		.loc 1 12 5 is_stmt 0
  33 0010 B240     		lw	ra,12(sp)
  34              		.cfi_restore 1
  10:stepperUP.c   ****        gpio_init(GPIOA, GPIO_MODE_OUT_PP, GPIO_OSPEED_50MHZ, 
  35              		.loc 1 10 8
  36 0012 37150140 		li	a0,1073811456
  37              		.loc 1 12 5
  10:stepperUP.c   ****        gpio_init(GPIOA, GPIO_MODE_OUT_PP, GPIO_OSPEED_50MHZ, 
  38              		.loc 1 10 8
  39 0016 BD46     		li	a3,15
  40 0018 0D46     		li	a2,3
  41 001a C145     		li	a1,16
GAS LISTING /var/folders/_0/fbrtbm_x4pbf1b72ynjm3v580000gn/T//ccGI2C5q.s 			page 2


  42 001c 13050580 		addi	a0,a0,-2048
  43              		.loc 1 12 5
  44 0020 4101     		addi	sp,sp,16
  45              	.LCFI1:
  46              		.cfi_def_cfa_offset 0
  10:stepperUP.c   ****        gpio_init(GPIOA, GPIO_MODE_OUT_PP, GPIO_OSPEED_50MHZ, 
  47              		.loc 1 10 8
  48 0022 17030000 		tail	gpio_init
  48      67000300 
  49              	.LVL1:
  50              		.cfi_endproc
  51              	.LFE2:
  53              		.section	.text.execStep,"ax",@progbits
  54              		.align	1
  55              		.globl	execStep
  57              	execStep:
  58              	.LFB3:
  13:stepperUP.c   **** 
  14:stepperUP.c   ****     void execStep(int cw){
  59              		.loc 1 14 26 is_stmt 1
  60              		.cfi_startproc
  61              	.LVL2:
  15:stepperUP.c   ****       static uint8_t step=0xF8; // Eight step sequence
  62              		.loc 1 15 7
  16:stepperUP.c   ****       // Step/bit   1   2   3   4   5   6   7   8
  17:stepperUP.c   ****       // Orange     0   0   0   1   1   1   1   1   Start 0xF8
  18:stepperUP.c   ****       // Yellow     1   1   0   0   0   1   1   1
  19:stepperUP.c   ****       // Pink       1   1   1   1   0   0   0   1
  20:stepperUP.c   ****       // Blue       0   1   1   1   1   1   0   0
  21:stepperUP.c   ****       // Thus: Signals could be derived from bit 0, 6, 4 & 2.
  22:stepperUP.c   **** 
  23:stepperUP.c   ****       step = cw ? (step>>1|step<<7) : (step<<1|step>>7); //RR/RL
  63              		.loc 1 23 7
  14:stepperUP.c   ****       static uint8_t step=0xF8; // Eight step sequence
  64              		.loc 1 14 26 is_stmt 0
  65 0000 4111     		addi	sp,sp,-16
  66              	.LCFI2:
  67              		.cfi_def_cfa_offset 16
  68 0002 22C4     		sw	s0,8(sp)
  69 0004 06C6     		sw	ra,12(sp)
  70              		.cfi_offset 8, -8
  71              		.cfi_offset 1, -4
  72 0006 37040000 		lui	s0,%hi(.LANCHOR0)
  73 000a 26C2     		sw	s1,4(sp)
  74              		.cfi_offset 9, -12
  75 000c 83470400 		lbu	a5,%lo(.LANCHOR0)(s0)
  76 0010 13040400 		addi	s0,s0,%lo(.LANCHOR0)
  77              		.loc 1 23 12
  78 0014 25C9     		beq	a0,zero,.L4
  79              		.loc 1 23 27 discriminator 1
  80 0016 13D61700 		srli	a2,a5,1
  81              		.loc 1 23 32 discriminator 1
  82 001a 9E07     		slli	a5,a5,7
  83              	.L7:
  84              		.loc 1 23 47 discriminator 2
  85 001c 5D8E     		or	a2,a2,a5
  24:stepperUP.c   ****       gpio_bit_write(GPIOA, GPIO_PIN_0, (step>>0)&1);
GAS LISTING /var/folders/_0/fbrtbm_x4pbf1b72ynjm3v580000gn/T//ccGI2C5q.s 			page 3


  86              		.loc 1 24 7 discriminator 2
  87 001e B7140140 		li	s1,1073811456
  23:stepperUP.c   ****       gpio_bit_write(GPIOA, GPIO_PIN_0, (step>>0)&1);
  88              		.loc 1 23 12 discriminator 2
  89 0022 1376F60F 		andi	a2,a2,0xff
  90 0026 2300C400 		sb	a2,0(s0)
  91              		.loc 1 24 7 is_stmt 1 discriminator 2
  92 002a 13850480 		addi	a0,s1,-2048
  93              	.LVL3:
  94 002e 058A     		andi	a2,a2,1
  95 0030 8545     		li	a1,1
  96 0032 97000000 		call	gpio_bit_write
  96      E7800000 
  97              	.LVL4:
  25:stepperUP.c   ****       gpio_bit_write(GPIOA, GPIO_PIN_1, (step>>6)&1);
  98              		.loc 1 25 7 discriminator 2
  99              		.loc 1 25 50 is_stmt 0 discriminator 2
 100 003a 03460400 		lbu	a2,0(s0)
 101              		.loc 1 25 7 discriminator 2
 102 003e 13850480 		addi	a0,s1,-2048
 103 0042 8945     		li	a1,2
 104              		.loc 1 25 50 discriminator 2
 105 0044 1982     		srli	a2,a2,6
 106              		.loc 1 25 7 discriminator 2
 107 0046 058A     		andi	a2,a2,1
 108 0048 97000000 		call	gpio_bit_write
 108      E7800000 
 109              	.LVL5:
  26:stepperUP.c   ****       gpio_bit_write(GPIOA, GPIO_PIN_2, (step>>4)&1);
 110              		.loc 1 26 7 is_stmt 1 discriminator 2
 111              		.loc 1 26 50 is_stmt 0 discriminator 2
 112 0050 03460400 		lbu	a2,0(s0)
 113              		.loc 1 26 7 discriminator 2
 114 0054 13850480 		addi	a0,s1,-2048
 115 0058 9145     		li	a1,4
 116              		.loc 1 26 50 discriminator 2
 117 005a 1182     		srli	a2,a2,4
 118              		.loc 1 26 7 discriminator 2
 119 005c 058A     		andi	a2,a2,1
 120 005e 97000000 		call	gpio_bit_write
 120      E7800000 
 121              	.LVL6:
  27:stepperUP.c   ****       gpio_bit_write(GPIOA, GPIO_PIN_3, (step>>2)&1);
 122              		.loc 1 27 7 is_stmt 1 discriminator 2
 123              		.loc 1 27 50 is_stmt 0 discriminator 2
 124 0066 03460400 		lbu	a2,0(s0)
  28:stepperUP.c   ****     }...
 125              		.loc 1 28 5 discriminator 2
 126 006a 2244     		lw	s0,8(sp)
 127              		.cfi_remember_state
 128              		.cfi_restore 8
 129 006c B240     		lw	ra,12(sp)
 130              		.cfi_restore 1
  27:stepperUP.c   ****       gpio_bit_write(GPIOA, GPIO_PIN_3, (step>>2)&1);
 131              		.loc 1 27 7 discriminator 2
 132 006e 13850480 		addi	a0,s1,-2048
 133              		.loc 1 28 5 discriminator 2
GAS LISTING /var/folders/_0/fbrtbm_x4pbf1b72ynjm3v580000gn/T//ccGI2C5q.s 			page 4


 134 0072 9244     		lw	s1,4(sp)
 135              		.cfi_restore 9
  27:stepperUP.c   ****       gpio_bit_write(GPIOA, GPIO_PIN_3, (step>>2)&1);
 136              		.loc 1 27 50 discriminator 2
 137 0074 0982     		srli	a2,a2,2
 138              		.loc 1 28 5 discriminator 2
  27:stepperUP.c   ****       gpio_bit_write(GPIOA, GPIO_PIN_3, (step>>2)&1);
 139              		.loc 1 27 7 discriminator 2
 140 0076 058A     		andi	a2,a2,1
 141 0078 A145     		li	a1,8
 142              		.loc 1 28 5 discriminator 2
 143 007a 4101     		addi	sp,sp,16
 144              	.LCFI3:
 145              		.cfi_def_cfa_offset 0
  27:stepperUP.c   ****       gpio_bit_write(GPIOA, GPIO_PIN_3, (step>>2)&1);
 146              		.loc 1 27 7 discriminator 2
 147 007c 17030000 		tail	gpio_bit_write
 147      67000300 
 148              	.LVL7:
 149              	.L4:
 150              	.LCFI4:
 151              		.cfi_restore_state
  23:stepperUP.c   ****       step = cw ? (step>>1|step<<7) : (step<<1|step>>7); //RR/RL
 152              		.loc 1 23 44 discriminator 2
 153 0084 13961700 		slli	a2,a5,1
  23:stepperUP.c   ****       step = cw ? (step>>1|step<<7) : (step<<1|step>>7); //RR/RL
 154              		.loc 1 23 47 discriminator 2
 155 0088 9D83     		srli	a5,a5,7
 156 008a 49BF     		j	.L7
 157              		.cfi_endproc
 158              	.LFE3:
 160              		.section	.sdata.step.3494,"aw"
 161              		.set	.LANCHOR0,. + 0
 164              	step.3494:
 165 0000 F8       		.byte	-8
 166              		.text
 167              	.Letext0:
 168              		.file 2 "/Users/gustavsf/Desktop/toolchain-gd32v-v202-osx/compiler/riscv64-unknown-elf/include/mac
 169              		.file 3 "/Users/gustavsf/Desktop/toolchain-gd32v-v202-osx/compiler/riscv64-unknown-elf/include/sys
 170              		.file 4 "../../firmware/GD32VF103_standard_peripheral/Include/gd32vf103_gpio.h"
 171              		.file 5 "../../firmware/GD32VF103_standard_peripheral/Include/gd32vf103_rcu.h"
 172              		.file 6 "../../firmware/GD32VF103_standard_peripheral/system_gd32vf103.h"
GAS LISTING /var/folders/_0/fbrtbm_x4pbf1b72ynjm3v580000gn/T//ccGI2C5q.s 			page 5

